ARM GAS  C:\Users\MANISH~1\AppData\Local\Temp\cc6ADUQL.s 			page 1


   1              		.cpu cortex-m0
   2              		.fpu softvfp
   3              		.eabi_attribute 20, 1
   4              		.eabi_attribute 21, 1
   5              		.eabi_attribute 23, 3
   6              		.eabi_attribute 24, 1
   7              		.eabi_attribute 25, 1
   8              		.eabi_attribute 26, 1
   9              		.eabi_attribute 30, 6
  10              		.eabi_attribute 34, 0
  11              		.eabi_attribute 18, 4
  12              		.code	16
  13              		.file	"BleProcessing.c"
  14              		.text
  15              	.Ltext0:
  16              		.cfi_sections	.debug_frame
  17              		.bss
  18              	hrsNotification:
  19 0000 00       		.space	1
  20              		.global	enterHibernateFlag
  21              		.type	enterHibernateFlag, %object
  22              		.size	enterHibernateFlag, 1
  23              	enterHibernateFlag:
  24 0001 00       		.space	1
  25              		.global	timestampWhenConnected
  26 0002 0000     		.align	2
  27              		.type	timestampWhenConnected, %object
  28              		.size	timestampWhenConnected, 4
  29              	timestampWhenConnected:
  30 0004 00000000 		.space	4
  31              		.global	connParamRequestState
  32              		.type	connParamRequestState, %object
  33              		.size	connParamRequestState, 1
  34              	connParamRequestState:
  35 0008 00       		.space	1
  36 0009 000000   		.section	.text.SendHeartRateOverBLE,"ax",%progbits
  37              		.align	2
  38              		.global	SendHeartRateOverBLE
  39              		.code	16
  40              		.thumb_func
  41              		.type	SendHeartRateOverBLE, %function
  42              	SendHeartRateOverBLE:
  43              	.LFB35:
  44              		.file 1 ".\\BleProcessing.c"
   1:.\BleProcessing.c **** /*****************************************************************************
   2:.\BleProcessing.c **** * File Name: BleProcessing.c
   3:.\BleProcessing.c **** *
   4:.\BleProcessing.c **** * Version: 1.0
   5:.\BleProcessing.c **** *
   6:.\BleProcessing.c **** * Description:
   7:.\BleProcessing.c **** * This file implements the BLE capability in the PSoC 4 BLE Lab 3.
   8:.\BleProcessing.c **** *
   9:.\BleProcessing.c **** * Hardware Dependency:
  10:.\BleProcessing.c **** * CY8CKIT-042 BLE Pioneer Kit
  11:.\BleProcessing.c **** *
  12:.\BleProcessing.c **** ******************************************************************************
  13:.\BleProcessing.c **** * Copyright (2014), Cypress Semiconductor Corporation.
ARM GAS  C:\Users\MANISH~1\AppData\Local\Temp\cc6ADUQL.s 			page 2


  14:.\BleProcessing.c **** ******************************************************************************
  15:.\BleProcessing.c **** * This software is owned by Cypress Semiconductor Corporation (Cypress) and is
  16:.\BleProcessing.c **** * protected by and subject to worldwide patent protection (United States and
  17:.\BleProcessing.c **** * foreign), United States copyright laws and international treaty provisions.
  18:.\BleProcessing.c **** * Cypress hereby grants to licensee a personal, non-exclusive, non-transferable
  19:.\BleProcessing.c **** * license to copy, use, modify, create derivative works of, and compile the
  20:.\BleProcessing.c **** * Cypress Source Code and derivative works for the sole purpose of creating
  21:.\BleProcessing.c **** * custom software in support of licensee product to be used only in conjunction
  22:.\BleProcessing.c **** * with a Cypress integrated circuit as specified in the applicable agreement.
  23:.\BleProcessing.c **** * Any reproduction, modification, translation, compilation, or representation of
  24:.\BleProcessing.c **** * this software except as specified above is prohibited without the express
  25:.\BleProcessing.c **** * written permission of Cypress.
  26:.\BleProcessing.c **** *
  27:.\BleProcessing.c **** * Disclaimer: CYPRESS MAKES NO WARRANTY OF ANY KIND, EXPRESS OR IMPLIED, WITH
  28:.\BleProcessing.c **** * REGARD TO THIS MATERIAL, INCLUDING, BUT NOT LIMITED TO, THE IMPLIED
  29:.\BleProcessing.c **** * WARRANTIES OF MERCHANTABILITY AND FITNESS FOR A PARTICULAR PURPOSE.
  30:.\BleProcessing.c **** * Cypress reserves the right to make changes without further notice to the
  31:.\BleProcessing.c **** * materials described herein. Cypress does not assume any liability arising out
  32:.\BleProcessing.c **** * of the application or use of any product or circuit described herein. Cypress
  33:.\BleProcessing.c **** * does not authorize its products for use as critical components in life-support
  34:.\BleProcessing.c **** * systems where a malfunction or failure may reasonably be expected to result in
  35:.\BleProcessing.c **** * significant injury to the user. The inclusion of Cypress' product in a life-
  36:.\BleProcessing.c **** * support systems application implies that the manufacturer assumes all risk of
  37:.\BleProcessing.c **** * such use and in doing so indemnifies Cypress against all charges. Use may be
  38:.\BleProcessing.c **** * limited by and subject to the applicable Cypress software license agreement.
  39:.\BleProcessing.c **** *****************************************************************************/
  40:.\BleProcessing.c **** 
  41:.\BleProcessing.c **** 
  42:.\BleProcessing.c **** /*****************************************************************************
  43:.\BleProcessing.c **** * Included headers
  44:.\BleProcessing.c **** *****************************************************************************/
  45:.\BleProcessing.c **** #include <project.h>
  46:.\BleProcessing.c **** #include <stdbool.h>
  47:.\BleProcessing.c **** #include "main.h"
  48:.\BleProcessing.c **** #include "HeartRateProcessing.h"
  49:.\BleProcessing.c **** #include "BleProcessing.h"
  50:.\BleProcessing.c **** #include "WatchdogTimer.h"
  51:.\BleProcessing.c **** 
  52:.\BleProcessing.c **** /*****************************************************************************
  53:.\BleProcessing.c **** * Macros 
  54:.\BleProcessing.c **** *****************************************************************************/
  55:.\BleProcessing.c **** #define HEART_RATE_DATA_LEN					(2)
  56:.\BleProcessing.c **** #define HRM_FLAG                            (0)
  57:.\BleProcessing.c **** 
  58:.\BleProcessing.c **** 
  59:.\BleProcessing.c **** /*****************************************************************************
  60:.\BleProcessing.c **** * Static variables 
  61:.\BleProcessing.c **** *****************************************************************************/
  62:.\BleProcessing.c **** static uint8 hrsNotification = false;
  63:.\BleProcessing.c **** 
  64:.\BleProcessing.c **** 
  65:.\BleProcessing.c **** /*****************************************************************************
  66:.\BleProcessing.c **** * Public variables 
  67:.\BleProcessing.c **** *****************************************************************************/
  68:.\BleProcessing.c **** bool enterHibernateFlag = false;
  69:.\BleProcessing.c **** uint32 timestampWhenConnected = 0;
  70:.\BleProcessing.c **** CONN_PARAM_REQUEST_STATE connParamRequestState = CONN_PARAM_REQUEST_NOT_SENT;
ARM GAS  C:\Users\MANISH~1\AppData\Local\Temp\cc6ADUQL.s 			page 3


  71:.\BleProcessing.c **** 
  72:.\BleProcessing.c **** 
  73:.\BleProcessing.c **** /*****************************************************************************
  74:.\BleProcessing.c **** * Public function definitions
  75:.\BleProcessing.c **** *****************************************************************************/
  76:.\BleProcessing.c **** 
  77:.\BleProcessing.c **** /*****************************************************************************
  78:.\BleProcessing.c **** * Function Name: SendHeartRateOverBLE
  79:.\BleProcessing.c **** ******************************************************************************
  80:.\BleProcessing.c **** * Summary:
  81:.\BleProcessing.c **** * Creates and sends the Heart Rate Measurement characteristic notification 
  82:.\BleProcessing.c **** * packet.
  83:.\BleProcessing.c **** *
  84:.\BleProcessing.c **** * Parameters:
  85:.\BleProcessing.c **** * None
  86:.\BleProcessing.c **** *
  87:.\BleProcessing.c **** * Return:
  88:.\BleProcessing.c **** * None
  89:.\BleProcessing.c **** *
  90:.\BleProcessing.c **** * Theory:
  91:.\BleProcessing.c **** * The function caches the value of the Heart Rate Measurement characteristic 
  92:.\BleProcessing.c **** * and updates the heart rate value in it. It then calls the BLE HRS service 
  93:.\BleProcessing.c **** * API to send this data via notification.
  94:.\BleProcessing.c **** *
  95:.\BleProcessing.c **** * Side Effects:
  96:.\BleProcessing.c **** * None
  97:.\BleProcessing.c **** *
  98:.\BleProcessing.c **** *****************************************************************************/
  99:.\BleProcessing.c **** void SendHeartRateOverBLE(void)
 100:.\BleProcessing.c **** {
  45              		.loc 1 100 0
  46              		.cfi_startproc
  47 0000 90B5     		push	{r4, r7, lr}
  48              		.cfi_def_cfa_offset 12
  49              		.cfi_offset 4, -12
  50              		.cfi_offset 7, -8
  51              		.cfi_offset 14, -4
  52 0002 83B0     		sub	sp, sp, #12
  53              		.cfi_def_cfa_offset 24
  54 0004 00AF     		add	r7, sp, #0
  55              		.cfi_def_cfa_register 7
 101:.\BleProcessing.c ****     /* Two byte packet for heart rate notification since the heart rate 
 102:.\BleProcessing.c ****      * measurement value is 8-bit (this is sufficient since our heart rate
 103:.\BleProcessing.c ****      * does not cross 255) and we are not using the Energy Expended 
 104:.\BleProcessing.c ****      * and RR-interval fields.
 105:.\BleProcessing.c ****      */
 106:.\BleProcessing.c **** 	uint8 heartRatePacket[2];
 107:.\BleProcessing.c **** 	
 108:.\BleProcessing.c **** 	if(hrsNotification)
  56              		.loc 1 108 0
  57 0006 114B     		ldr	r3, .L3
  58 0008 1B78     		ldrb	r3, [r3]
  59 000a 002B     		cmp	r3, #0
  60 000c 1BD0     		beq	.L1
 109:.\BleProcessing.c **** 	{
 110:.\BleProcessing.c ****         /* Read the existing characteristic value into a 
 111:.\BleProcessing.c ****          * two-byte array, by using CyBle_HrssGetCharacteristicValue(). 
ARM GAS  C:\Users\MANISH~1\AppData\Local\Temp\cc6ADUQL.s 			page 4


 112:.\BleProcessing.c ****          */
 113:.\BleProcessing.c ****         CyBle_HrssGetCharacteristicValue(CYBLE_HRS_HRM, HEART_RATE_DATA_LEN, heartRatePacket);
  61              		.loc 1 113 0
  62 000e 3B1D     		add	r3, r7, #4
  63 0010 0020     		mov	r0, #0
  64 0012 0221     		mov	r1, #2
  65 0014 1A1C     		mov	r2, r3
  66 0016 FFF7FEFF 		bl	CyBle_HrssGetCharacteristicValue
 114:.\BleProcessing.c **** 
 115:.\BleProcessing.c ****         
 116:.\BleProcessing.c ****         /* Update the second byte with the actual heart rate value. */
 117:.\BleProcessing.c ****         heartRatePacket[1] = heartRate;
  67              		.loc 1 117 0
  68 001a 0D4B     		ldr	r3, .L3+4
  69 001c 1A78     		ldrb	r2, [r3]
  70 001e 3B1D     		add	r3, r7, #4
  71 0020 5A70     		strb	r2, [r3, #1]
 118:.\BleProcessing.c **** 		
 119:.\BleProcessing.c ****         
 120:.\BleProcessing.c ****         /* Call the BLE component API to send notification */
 121:.\BleProcessing.c **** 		CyBle_HrssSendNotification(cyBle_connHandle, CYBLE_HRS_HRM, HEART_RATE_DATA_LEN, heartRatePacket)
  72              		.loc 1 121 0
  73 0022 0C4B     		ldr	r3, .L3+8
  74 0024 3C1D     		add	r4, r7, #4
  75 0026 1A78     		ldrb	r2, [r3]
  76 0028 5B78     		ldrb	r3, [r3, #1]
  77 002a 1B02     		lsl	r3, r3, #8
  78 002c 1A43     		orr	r2, r3
  79 002e 0023     		mov	r3, #0
  80 0030 1204     		lsl	r2, r2, #16
  81 0032 120C     		lsr	r2, r2, #16
  82 0034 1B0C     		lsr	r3, r3, #16
  83 0036 1B04     		lsl	r3, r3, #16
  84 0038 1343     		orr	r3, r2
  85 003a 181C     		mov	r0, r3
  86 003c 0021     		mov	r1, #0
  87 003e 0222     		mov	r2, #2
  88 0040 231C     		mov	r3, r4
  89 0042 FFF7FEFF 		bl	CyBle_HrssSendNotification
  90              	.L1:
 122:.\BleProcessing.c ****     }
 123:.\BleProcessing.c **** }
  91              		.loc 1 123 0
  92 0046 BD46     		mov	sp, r7
  93 0048 03B0     		add	sp, sp, #12
  94              		@ sp needed
  95 004a 90BD     		pop	{r4, r7, pc}
  96              	.L4:
  97              		.align	2
  98              	.L3:
  99 004c 00000000 		.word	hrsNotification
 100 0050 00000000 		.word	heartRate
 101 0054 00000000 		.word	cyBle_connHandle
 102              		.cfi_endproc
 103              	.LFE35:
 104              		.size	SendHeartRateOverBLE, .-SendHeartRateOverBLE
 105              		.section	.text.HrsEventHandler,"ax",%progbits
ARM GAS  C:\Users\MANISH~1\AppData\Local\Temp\cc6ADUQL.s 			page 5


 106              		.align	2
 107              		.global	HrsEventHandler
 108              		.code	16
 109              		.thumb_func
 110              		.type	HrsEventHandler, %function
 111              	HrsEventHandler:
 112              	.LFB36:
 124:.\BleProcessing.c **** 
 125:.\BleProcessing.c **** 
 126:.\BleProcessing.c **** /*****************************************************************************
 127:.\BleProcessing.c **** * Function Name: HrsEventHandler
 128:.\BleProcessing.c **** ******************************************************************************
 129:.\BleProcessing.c **** * Summary:
 130:.\BleProcessing.c **** * Event handler for the Heart Rate Service specific events.
 131:.\BleProcessing.c **** *
 132:.\BleProcessing.c **** * Parameters:
 133:.\BleProcessing.c **** * event: An enumerated value to be checked and accordingly some action to 
 134:.\BleProcessing.c **** *        be taken. The list of events is defined in the CYBLE_EVT_T enum.
 135:.\BleProcessing.c **** *
 136:.\BleProcessing.c **** * eventParam: The parameter associated with the event. The type of parameter
 137:.\BleProcessing.c **** *             can vary depending on the event. For more details refer the 
 138:.\BleProcessing.c **** *             BLE component datasheet.
 139:.\BleProcessing.c **** *
 140:.\BleProcessing.c **** * Return:
 141:.\BleProcessing.c **** * None
 142:.\BleProcessing.c **** *
 143:.\BleProcessing.c **** * Theory:
 144:.\BleProcessing.c **** * The function implements a switch statement to handle the notification
 145:.\BleProcessing.c **** * enable and notification disable events for the Heart Rate Service.
 146:.\BleProcessing.c **** *
 147:.\BleProcessing.c **** * Side Effects:
 148:.\BleProcessing.c **** * None
 149:.\BleProcessing.c **** *
 150:.\BleProcessing.c **** *****************************************************************************/
 151:.\BleProcessing.c **** void HrsEventHandler(uint32 event, void *eventParam)
 152:.\BleProcessing.c **** {
 113              		.loc 1 152 0
 114              		.cfi_startproc
 115 0000 80B5     		push	{r7, lr}
 116              		.cfi_def_cfa_offset 8
 117              		.cfi_offset 7, -8
 118              		.cfi_offset 14, -4
 119 0002 82B0     		sub	sp, sp, #8
 120              		.cfi_def_cfa_offset 16
 121 0004 00AF     		add	r7, sp, #0
 122              		.cfi_def_cfa_register 7
 123 0006 7860     		str	r0, [r7, #4]
 124 0008 3960     		str	r1, [r7]
 153:.\BleProcessing.c ****     /* Event handler switch statement for the HRS service specific events. */
 154:.\BleProcessing.c ****      
 155:.\BleProcessing.c ****     
 156:.\BleProcessing.c ****     /* Set the hrsNotification variable on the notification 
 157:.\BleProcessing.c ****      * enabled event, and clear it on the disabled event.
 158:.\BleProcessing.c ****      */
 159:.\BleProcessing.c ****     switch(event)
 125              		.loc 1 159 0
 126 000a 7B68     		ldr	r3, [r7, #4]
ARM GAS  C:\Users\MANISH~1\AppData\Local\Temp\cc6ADUQL.s 			page 6


 127 000c 7222     		mov	r2, #114
 128 000e FF32     		add	r2, r2, #255
 129 0010 9342     		cmp	r3, r2
 130 0012 04D0     		beq	.L7
 131 0014 B922     		mov	r2, #185
 132 0016 5200     		lsl	r2, r2, #1
 133 0018 9342     		cmp	r3, r2
 134 001a 04D0     		beq	.L8
 160:.\BleProcessing.c **** 	{
 161:.\BleProcessing.c **** 		case CYBLE_EVT_HRSS_NOTIFICATION_ENABLED:
 162:.\BleProcessing.c **** 			hrsNotification = true;	
 163:.\BleProcessing.c **** 		    break;
 164:.\BleProcessing.c **** 		
 165:.\BleProcessing.c **** 		case CYBLE_EVT_HRSS_NOTIFICATION_DISABLED:
 166:.\BleProcessing.c **** 			hrsNotification = false;
 167:.\BleProcessing.c **** 	    	break;
 168:.\BleProcessing.c **** 		
 169:.\BleProcessing.c **** 		default:
 170:.\BleProcessing.c ****     		break;
 135              		.loc 1 170 0
 136 001c 07E0     		b	.L5
 137              	.L7:
 162:.\BleProcessing.c **** 			hrsNotification = true;	
 138              		.loc 1 162 0
 139 001e 054B     		ldr	r3, .L10
 140 0020 0122     		mov	r2, #1
 141 0022 1A70     		strb	r2, [r3]
 163:.\BleProcessing.c **** 		    break;
 142              		.loc 1 163 0
 143 0024 03E0     		b	.L5
 144              	.L8:
 166:.\BleProcessing.c **** 			hrsNotification = false;
 145              		.loc 1 166 0
 146 0026 034B     		ldr	r3, .L10
 147 0028 0022     		mov	r2, #0
 148 002a 1A70     		strb	r2, [r3]
 167:.\BleProcessing.c **** 	    	break;
 149              		.loc 1 167 0
 150 002c C046     		mov	r8, r8
 151              	.L5:
 171:.\BleProcessing.c **** 	}
 172:.\BleProcessing.c **** }
 152              		.loc 1 172 0
 153 002e BD46     		mov	sp, r7
 154 0030 02B0     		add	sp, sp, #8
 155              		@ sp needed
 156 0032 80BD     		pop	{r7, pc}
 157              	.L11:
 158              		.align	2
 159              	.L10:
 160 0034 00000000 		.word	hrsNotification
 161              		.cfi_endproc
 162              	.LFE36:
 163              		.size	HrsEventHandler, .-HrsEventHandler
 164              		.section	.text.GeneralEventHandler,"ax",%progbits
 165              		.align	2
 166              		.global	GeneralEventHandler
ARM GAS  C:\Users\MANISH~1\AppData\Local\Temp\cc6ADUQL.s 			page 7


 167              		.code	16
 168              		.thumb_func
 169              		.type	GeneralEventHandler, %function
 170              	GeneralEventHandler:
 171              	.LFB37:
 173:.\BleProcessing.c **** 
 174:.\BleProcessing.c **** 
 175:.\BleProcessing.c **** /*****************************************************************************
 176:.\BleProcessing.c **** * Function Name: GeneralEventHandler
 177:.\BleProcessing.c **** ******************************************************************************
 178:.\BleProcessing.c **** * Summary:
 179:.\BleProcessing.c **** * Event handler for generic BLE events.
 180:.\BleProcessing.c **** *
 181:.\BleProcessing.c **** * Parameters:
 182:.\BleProcessing.c **** * event: An enumerated value to be checked and accordingly some action to 
 183:.\BleProcessing.c **** *        be taken. The list of events is defined in the CYBLE_EVENT_T enum.
 184:.\BleProcessing.c **** *
 185:.\BleProcessing.c **** * eventParam: The parameter associated with the event. The type of parameter
 186:.\BleProcessing.c **** *             can vary depending on the event. For more details refer the 
 187:.\BleProcessing.c **** *             BLE component datasheet.
 188:.\BleProcessing.c **** *
 189:.\BleProcessing.c **** * Return:
 190:.\BleProcessing.c **** * None
 191:.\BleProcessing.c **** *
 192:.\BleProcessing.c **** * Theory:
 193:.\BleProcessing.c **** * The function implements a switch case to handle different events for BLE
 194:.\BleProcessing.c **** * advertisement, connection and disconnection.
 195:.\BleProcessing.c **** *
 196:.\BleProcessing.c **** * Side Effects:
 197:.\BleProcessing.c **** * None
 198:.\BleProcessing.c **** *
 199:.\BleProcessing.c **** *****************************************************************************/
 200:.\BleProcessing.c **** void GeneralEventHandler(uint32 event, void *eventParam)
 201:.\BleProcessing.c **** {
 172              		.loc 1 201 0
 173              		.cfi_startproc
 174 0000 80B5     		push	{r7, lr}
 175              		.cfi_def_cfa_offset 8
 176              		.cfi_offset 7, -8
 177              		.cfi_offset 14, -4
 178 0002 82B0     		sub	sp, sp, #8
 179              		.cfi_def_cfa_offset 16
 180 0004 00AF     		add	r7, sp, #0
 181              		.cfi_def_cfa_register 7
 182 0006 7860     		str	r0, [r7, #4]
 183 0008 3960     		str	r1, [r7]
 202:.\BleProcessing.c ****     /* Handle various events for a general BLE connection */
 203:.\BleProcessing.c **** 	switch(event)
 184              		.loc 1 203 0
 185 000a 7B68     		ldr	r3, [r7, #4]
 186 000c 282B     		cmp	r3, #40
 187 000e 1CD0     		beq	.L14
 188 0010 04D8     		bhi	.L15
 189 0012 012B     		cmp	r3, #1
 190 0014 09D0     		beq	.L16
 191 0016 262B     		cmp	r3, #38
 192 0018 0ED0     		beq	.L17
ARM GAS  C:\Users\MANISH~1\AppData\Local\Temp\cc6ADUQL.s 			page 8


 204:.\BleProcessing.c **** 	{
 205:.\BleProcessing.c **** 		case CYBLE_EVT_STACK_ON:
 206:.\BleProcessing.c **** 			/* Start the fast advertisement upon BLE initialization. */
 207:.\BleProcessing.c ****             CyBle_GappStartAdvertisement(CYBLE_ADVERTISING_FAST);
 208:.\BleProcessing.c **** 
 209:.\BleProcessing.c ****             #if (RGB_LED_IN_PROJECT)
 210:.\BleProcessing.c ****                 /* Turn ON Green LED to indicate advertisement state */
 211:.\BleProcessing.c ****                 Led_Advertising_Green_Write(0);
 212:.\BleProcessing.c ****             #endif  /* #if (RGB_LED_IN_PROJECT) */
 213:.\BleProcessing.c ****     		break;
 214:.\BleProcessing.c ****             
 215:.\BleProcessing.c ****         case CYBLE_EVT_GAPP_ADVERTISEMENT_START_STOP:
 216:.\BleProcessing.c ****             /* If advertisement finished, then enter Hibernate mode. */
 217:.\BleProcessing.c ****             if(CYBLE_STATE_DISCONNECTED == CyBle_GetState())
 218:.\BleProcessing.c ****             {
 219:.\BleProcessing.c ****                 enterHibernateFlag = true;
 220:.\BleProcessing.c ****             }
 221:.\BleProcessing.c ****             break;
 222:.\BleProcessing.c ****             
 223:.\BleProcessing.c ****         case CYBLE_EVT_GAP_DEVICE_DISCONNECTED:
 224:.\BleProcessing.c ****             /* Enter hibernate mode upon disconnect */
 225:.\BleProcessing.c **** 			enterHibernateFlag = true;
 226:.\BleProcessing.c ****             
 227:.\BleProcessing.c ****             /* Reset the connection parameter update request status */
 228:.\BleProcessing.c ****             connParamRequestState = CONN_PARAM_REQUEST_NOT_SENT;
 229:.\BleProcessing.c ****             break;
 230:.\BleProcessing.c **** 			
 231:.\BleProcessing.c **** 		case CYBLE_EVT_GATT_CONNECT_IND:
 232:.\BleProcessing.c ****             /* Note the time when connected */
 233:.\BleProcessing.c ****             timestampWhenConnected = WatchdogTimer_GetTimestamp();
 234:.\BleProcessing.c **** 
 235:.\BleProcessing.c ****             #if (RGB_LED_IN_PROJECT)
 236:.\BleProcessing.c ****                 /* Turn OFF Green LED; Turn ON Blue LED to indicate Connection */
 237:.\BleProcessing.c ****                 Led_Advertising_Green_Write(1);
 238:.\BleProcessing.c ****                 Led_Connected_Blue_Write(0);
 239:.\BleProcessing.c ****             #endif  /* #if (RGB_LED_IN_PROJECT) */
 240:.\BleProcessing.c **** 			break;
 241:.\BleProcessing.c **** 			
 242:.\BleProcessing.c **** 		case CYBLE_EVT_GATT_DISCONNECT_IND:
 243:.\BleProcessing.c ****             /* Clear the HRS notification flag and the device connected flag */
 244:.\BleProcessing.c **** 			hrsNotification = false;
 245:.\BleProcessing.c **** 			break;
 246:.\BleProcessing.c **** 		
 247:.\BleProcessing.c ****         case CYBLE_EVT_L2CAP_CONN_PARAM_UPDATE_RSP:
 248:.\BleProcessing.c ****             /* Got a response for the connection parameter update request */
 249:.\BleProcessing.c ****             if(*(uint16 *)eventParam == CYBLE_L2CAP_CONN_PARAM_ACCEPTED)
 250:.\BleProcessing.c ****             {
 251:.\BleProcessing.c ****                 connParamRequestState = CONN_PARAM_REQUEST_ACCEPTED;
 252:.\BleProcessing.c ****             }
 253:.\BleProcessing.c ****             else
 254:.\BleProcessing.c ****             {
 255:.\BleProcessing.c ****                 connParamRequestState = CONN_PARAM_REQUEST_REJECTED;
 256:.\BleProcessing.c ****             }
 257:.\BleProcessing.c ****             
 258:.\BleProcessing.c **** 		default:
 259:.\BleProcessing.c ****     		break;
 193              		.loc 1 259 0
ARM GAS  C:\Users\MANISH~1\AppData\Local\Temp\cc6ADUQL.s 			page 9


 194 001a 39E0     		b	.L12
 195              	.L15:
 203:.\BleProcessing.c **** 	switch(event)
 196              		.loc 1 203 0
 197 001c 422B     		cmp	r3, #66
 198 001e 27D0     		beq	.L18
 199 0020 712B     		cmp	r3, #113
 200 0022 29D0     		beq	.L19
 201 0024 412B     		cmp	r3, #65
 202 0026 17D0     		beq	.L20
 203              		.loc 1 259 0
 204 0028 32E0     		b	.L12
 205              	.L16:
 207:.\BleProcessing.c ****             CyBle_GappStartAdvertisement(CYBLE_ADVERTISING_FAST);
 206              		.loc 1 207 0
 207 002a 0020     		mov	r0, #0
 208 002c FFF7FEFF 		bl	CyBle_GappStartAdvertisement
 211:.\BleProcessing.c ****                 Led_Advertising_Green_Write(0);
 209              		.loc 1 211 0
 210 0030 0020     		mov	r0, #0
 211 0032 FFF7FEFF 		bl	Led_Advertising_Green_Write
 213:.\BleProcessing.c ****     		break;
 212              		.loc 1 213 0
 213 0036 2BE0     		b	.L12
 214              	.L17:
 217:.\BleProcessing.c ****             if(CYBLE_STATE_DISCONNECTED == CyBle_GetState())
 215              		.loc 1 217 0
 216 0038 174B     		ldr	r3, .L24
 217 003a 1B78     		ldrb	r3, [r3]
 218 003c 042B     		cmp	r3, #4
 219 003e 03D1     		bne	.L22
 219:.\BleProcessing.c ****                 enterHibernateFlag = true;
 220              		.loc 1 219 0
 221 0040 164B     		ldr	r3, .L24+4
 222 0042 0122     		mov	r2, #1
 223 0044 1A70     		strb	r2, [r3]
 221:.\BleProcessing.c ****             break;
 224              		.loc 1 221 0
 225 0046 23E0     		b	.L12
 226              	.L22:
 227 0048 22E0     		b	.L12
 228              	.L14:
 225:.\BleProcessing.c **** 			enterHibernateFlag = true;
 229              		.loc 1 225 0
 230 004a 144B     		ldr	r3, .L24+4
 231 004c 0122     		mov	r2, #1
 232 004e 1A70     		strb	r2, [r3]
 228:.\BleProcessing.c ****             connParamRequestState = CONN_PARAM_REQUEST_NOT_SENT;
 233              		.loc 1 228 0
 234 0050 134B     		ldr	r3, .L24+8
 235 0052 0022     		mov	r2, #0
 236 0054 1A70     		strb	r2, [r3]
 229:.\BleProcessing.c ****             break;
 237              		.loc 1 229 0
 238 0056 1BE0     		b	.L12
 239              	.L20:
 233:.\BleProcessing.c ****             timestampWhenConnected = WatchdogTimer_GetTimestamp();
ARM GAS  C:\Users\MANISH~1\AppData\Local\Temp\cc6ADUQL.s 			page 10


 240              		.loc 1 233 0
 241 0058 FFF7FEFF 		bl	WatchdogTimer_GetTimestamp
 242 005c 021C     		mov	r2, r0
 243 005e 114B     		ldr	r3, .L24+12
 244 0060 1A60     		str	r2, [r3]
 237:.\BleProcessing.c ****                 Led_Advertising_Green_Write(1);
 245              		.loc 1 237 0
 246 0062 0120     		mov	r0, #1
 247 0064 FFF7FEFF 		bl	Led_Advertising_Green_Write
 238:.\BleProcessing.c ****                 Led_Connected_Blue_Write(0);
 248              		.loc 1 238 0
 249 0068 0020     		mov	r0, #0
 250 006a FFF7FEFF 		bl	Led_Connected_Blue_Write
 240:.\BleProcessing.c **** 			break;
 251              		.loc 1 240 0
 252 006e 0FE0     		b	.L12
 253              	.L18:
 244:.\BleProcessing.c **** 			hrsNotification = false;
 254              		.loc 1 244 0
 255 0070 0D4B     		ldr	r3, .L24+16
 256 0072 0022     		mov	r2, #0
 257 0074 1A70     		strb	r2, [r3]
 245:.\BleProcessing.c **** 			break;
 258              		.loc 1 245 0
 259 0076 0BE0     		b	.L12
 260              	.L19:
 249:.\BleProcessing.c ****             if(*(uint16 *)eventParam == CYBLE_L2CAP_CONN_PARAM_ACCEPTED)
 261              		.loc 1 249 0
 262 0078 3B68     		ldr	r3, [r7]
 263 007a 1B88     		ldrh	r3, [r3]
 264 007c 002B     		cmp	r3, #0
 265 007e 03D1     		bne	.L23
 251:.\BleProcessing.c ****                 connParamRequestState = CONN_PARAM_REQUEST_ACCEPTED;
 266              		.loc 1 251 0
 267 0080 074B     		ldr	r3, .L24+8
 268 0082 0222     		mov	r2, #2
 269 0084 1A70     		strb	r2, [r3]
 270 0086 02E0     		b	.L13
 271              	.L23:
 255:.\BleProcessing.c ****                 connParamRequestState = CONN_PARAM_REQUEST_REJECTED;
 272              		.loc 1 255 0
 273 0088 054B     		ldr	r3, .L24+8
 274 008a 0322     		mov	r2, #3
 275 008c 1A70     		strb	r2, [r3]
 276              	.L13:
 277              		.loc 1 259 0
 278 008e C046     		mov	r8, r8
 279              	.L12:
 260:.\BleProcessing.c **** 	}
 261:.\BleProcessing.c **** }
 280              		.loc 1 261 0
 281 0090 BD46     		mov	sp, r7
 282 0092 02B0     		add	sp, sp, #8
 283              		@ sp needed
 284 0094 80BD     		pop	{r7, pc}
 285              	.L25:
 286 0096 C046     		.align	2
ARM GAS  C:\Users\MANISH~1\AppData\Local\Temp\cc6ADUQL.s 			page 11


 287              	.L24:
 288 0098 00000000 		.word	cyBle_state
 289 009c 00000000 		.word	enterHibernateFlag
 290 00a0 00000000 		.word	connParamRequestState
 291 00a4 00000000 		.word	timestampWhenConnected
 292 00a8 00000000 		.word	hrsNotification
 293              		.cfi_endproc
 294              	.LFE37:
 295              		.size	GeneralEventHandler, .-GeneralEventHandler
 296              		.text
 297              	.Letext0:
 298              		.file 2 ".\\Generated_Source\\PSoC4/cytypes.h"
 299              		.file 3 ".\\Generated_Source\\PSoC4/BLE_StackGatt.h"
 300              		.file 4 ".\\Generated_Source\\PSoC4/BLE_Stack.h"
 301              		.file 5 ".\\Generated_Source\\PSoC4/BLE_hrs.h"
 302              		.file 6 ".\\Generated_Source\\PSoC4/BLE_dis.h"
 303              		.file 7 ".\\Generated_Source\\PSoC4/BLE_eventHandler.h"
 304              		.file 8 ".\\BleProcessing.h"
 305              		.file 9 ".\\HeartRateProcessing.h"