ARM GAS  C:\Users\MANISH~1\AppData\Local\Temp\ccB4xhqf.s 			page 1


   1              		.cpu cortex-m0
   2              		.fpu softvfp
   3              		.eabi_attribute 20, 1
   4              		.eabi_attribute 21, 1
   5              		.eabi_attribute 23, 3
   6              		.eabi_attribute 24, 1
   7              		.eabi_attribute 25, 1
   8              		.eabi_attribute 26, 1
   9              		.eabi_attribute 30, 6
  10              		.eabi_attribute 34, 0
  11              		.eabi_attribute 18, 4
  12              		.code	16
  13              		.file	"cyfitter_cfg.c"
  14              		.text
  15              	.Ltext0:
  16              		.cfi_sections	.debug_frame
  17              		.section	.text.CYMEMZERO,"ax",%progbits
  18              		.align	2
  19              		.code	16
  20              		.thumb_func
  21              		.type	CYMEMZERO, %function
  22              	CYMEMZERO:
  23              	.LFB2:
  24              		.file 1 ".\\Generated_Source\\PSoC4\\cyfitter_cfg.c"
   1:.\Generated_Source\PSoC4/cyfitter_cfg.c **** /*******************************************************************************
   2:.\Generated_Source\PSoC4/cyfitter_cfg.c **** * FILENAME: cyfitter_cfg.c
   3:.\Generated_Source\PSoC4/cyfitter_cfg.c **** * PSoC Creator  3.1 SP3
   4:.\Generated_Source\PSoC4/cyfitter_cfg.c **** *
   5:.\Generated_Source\PSoC4/cyfitter_cfg.c **** * Description:
   6:.\Generated_Source\PSoC4/cyfitter_cfg.c **** * This file is automatically generated by PSoC Creator with device 
   7:.\Generated_Source\PSoC4/cyfitter_cfg.c **** * initialization code.  Except for the user defined sections in
   8:.\Generated_Source\PSoC4/cyfitter_cfg.c **** * CyClockStartupError(), this file should not be modified.
   9:.\Generated_Source\PSoC4/cyfitter_cfg.c **** *
  10:.\Generated_Source\PSoC4/cyfitter_cfg.c **** ********************************************************************************
  11:.\Generated_Source\PSoC4/cyfitter_cfg.c **** * Copyright 2013, Cypress Semiconductor Corporation.  All rights reserved.
  12:.\Generated_Source\PSoC4/cyfitter_cfg.c **** * You may use this file only in accordance with the license, terms, conditions, 
  13:.\Generated_Source\PSoC4/cyfitter_cfg.c **** * disclaimers, and limitations in the end user license agreement accompanying 
  14:.\Generated_Source\PSoC4/cyfitter_cfg.c **** * the software package with which this file was provided.
  15:.\Generated_Source\PSoC4/cyfitter_cfg.c **** ********************************************************************************/
  16:.\Generated_Source\PSoC4/cyfitter_cfg.c **** 
  17:.\Generated_Source\PSoC4/cyfitter_cfg.c **** #include <string.h>
  18:.\Generated_Source\PSoC4/cyfitter_cfg.c **** #include <cytypes.h>
  19:.\Generated_Source\PSoC4/cyfitter_cfg.c **** #include <cydevice_trm.h>
  20:.\Generated_Source\PSoC4/cyfitter_cfg.c **** #include <cyfitter.h>
  21:.\Generated_Source\PSoC4/cyfitter_cfg.c **** #include <CyLib.h>
  22:.\Generated_Source\PSoC4/cyfitter_cfg.c **** #include <cyfitter_cfg.h>
  23:.\Generated_Source\PSoC4/cyfitter_cfg.c **** 
  24:.\Generated_Source\PSoC4/cyfitter_cfg.c **** 
  25:.\Generated_Source\PSoC4/cyfitter_cfg.c **** #if defined(__GNUC__) || defined(__ARMCC_VERSION)
  26:.\Generated_Source\PSoC4/cyfitter_cfg.c ****     #define CYPACKED 
  27:.\Generated_Source\PSoC4/cyfitter_cfg.c ****     #define CYPACKED_ATTR __attribute__ ((packed))
  28:.\Generated_Source\PSoC4/cyfitter_cfg.c ****     #define CYALIGNED __attribute__ ((aligned))
  29:.\Generated_Source\PSoC4/cyfitter_cfg.c ****     #define CY_CFG_UNUSED __attribute__ ((unused))
  30:.\Generated_Source\PSoC4/cyfitter_cfg.c ****     #define CY_CFG_SECTION __attribute__ ((section(".psocinit")))
  31:.\Generated_Source\PSoC4/cyfitter_cfg.c ****     
  32:.\Generated_Source\PSoC4/cyfitter_cfg.c ****     #if defined(__ARMCC_VERSION)
  33:.\Generated_Source\PSoC4/cyfitter_cfg.c ****         #define CY_CFG_MEMORY_BARRIER() __memory_changed()
ARM GAS  C:\Users\MANISH~1\AppData\Local\Temp\ccB4xhqf.s 			page 2


  34:.\Generated_Source\PSoC4/cyfitter_cfg.c ****     #else
  35:.\Generated_Source\PSoC4/cyfitter_cfg.c ****         #define CY_CFG_MEMORY_BARRIER() __sync_synchronize()
  36:.\Generated_Source\PSoC4/cyfitter_cfg.c ****     #endif
  37:.\Generated_Source\PSoC4/cyfitter_cfg.c ****     
  38:.\Generated_Source\PSoC4/cyfitter_cfg.c **** #elif defined(__ICCARM__)
  39:.\Generated_Source\PSoC4/cyfitter_cfg.c ****     #include <intrinsics.h>
  40:.\Generated_Source\PSoC4/cyfitter_cfg.c **** 
  41:.\Generated_Source\PSoC4/cyfitter_cfg.c ****     #define CYPACKED __packed
  42:.\Generated_Source\PSoC4/cyfitter_cfg.c ****     #define CYPACKED_ATTR 
  43:.\Generated_Source\PSoC4/cyfitter_cfg.c ****     #define CYALIGNED _Pragma("data_alignment=4")
  44:.\Generated_Source\PSoC4/cyfitter_cfg.c ****     #define CY_CFG_UNUSED _Pragma("diag_suppress=Pe177")
  45:.\Generated_Source\PSoC4/cyfitter_cfg.c ****     #define CY_CFG_SECTION _Pragma("location=\".psocinit\"")
  46:.\Generated_Source\PSoC4/cyfitter_cfg.c ****     
  47:.\Generated_Source\PSoC4/cyfitter_cfg.c ****     #define CY_CFG_MEMORY_BARRIER() __DMB()
  48:.\Generated_Source\PSoC4/cyfitter_cfg.c ****     
  49:.\Generated_Source\PSoC4/cyfitter_cfg.c **** #else
  50:.\Generated_Source\PSoC4/cyfitter_cfg.c ****     #error Unsupported toolchain
  51:.\Generated_Source\PSoC4/cyfitter_cfg.c **** #endif
  52:.\Generated_Source\PSoC4/cyfitter_cfg.c **** 
  53:.\Generated_Source\PSoC4/cyfitter_cfg.c **** 
  54:.\Generated_Source\PSoC4/cyfitter_cfg.c **** CY_CFG_UNUSED
  55:.\Generated_Source\PSoC4/cyfitter_cfg.c **** static void CYMEMZERO(void *s, size_t n);
  56:.\Generated_Source\PSoC4/cyfitter_cfg.c **** CY_CFG_UNUSED
  57:.\Generated_Source\PSoC4/cyfitter_cfg.c **** static void CYMEMZERO(void *s, size_t n)
  58:.\Generated_Source\PSoC4/cyfitter_cfg.c **** {
  25              		.loc 1 58 0
  26              		.cfi_startproc
  27 0000 80B5     		push	{r7, lr}
  28              		.cfi_def_cfa_offset 8
  29              		.cfi_offset 7, -8
  30              		.cfi_offset 14, -4
  31 0002 82B0     		sub	sp, sp, #8
  32              		.cfi_def_cfa_offset 16
  33 0004 00AF     		add	r7, sp, #0
  34              		.cfi_def_cfa_register 7
  35 0006 7860     		str	r0, [r7, #4]
  36 0008 3960     		str	r1, [r7]
  59:.\Generated_Source\PSoC4/cyfitter_cfg.c **** 	(void)memset(s, 0, n);
  37              		.loc 1 59 0
  38 000a 7A68     		ldr	r2, [r7, #4]
  39 000c 3B68     		ldr	r3, [r7]
  40 000e 101C     		mov	r0, r2
  41 0010 0021     		mov	r1, #0
  42 0012 1A1C     		mov	r2, r3
  43 0014 FFF7FEFF 		bl	memset
  60:.\Generated_Source\PSoC4/cyfitter_cfg.c **** }
  44              		.loc 1 60 0
  45 0018 BD46     		mov	sp, r7
  46 001a 02B0     		add	sp, sp, #8
  47              		@ sp needed
  48 001c 80BD     		pop	{r7, pc}
  49              		.cfi_endproc
  50              	.LFE2:
  51              		.size	CYMEMZERO, .-CYMEMZERO
  52 001e C046     		.section	.text.CYCONFIGCPY,"ax",%progbits
  53              		.align	2
  54              		.code	16
ARM GAS  C:\Users\MANISH~1\AppData\Local\Temp\ccB4xhqf.s 			page 3


  55              		.thumb_func
  56              		.type	CYCONFIGCPY, %function
  57              	CYCONFIGCPY:
  58              	.LFB3:
  61:.\Generated_Source\PSoC4/cyfitter_cfg.c **** CY_CFG_UNUSED
  62:.\Generated_Source\PSoC4/cyfitter_cfg.c **** static void CYCONFIGCPY(void *dest, const void *src, size_t n);
  63:.\Generated_Source\PSoC4/cyfitter_cfg.c **** CY_CFG_UNUSED
  64:.\Generated_Source\PSoC4/cyfitter_cfg.c **** static void CYCONFIGCPY(void *dest, const void *src, size_t n)
  65:.\Generated_Source\PSoC4/cyfitter_cfg.c **** {
  59              		.loc 1 65 0
  60              		.cfi_startproc
  61 0000 80B5     		push	{r7, lr}
  62              		.cfi_def_cfa_offset 8
  63              		.cfi_offset 7, -8
  64              		.cfi_offset 14, -4
  65 0002 84B0     		sub	sp, sp, #16
  66              		.cfi_def_cfa_offset 24
  67 0004 00AF     		add	r7, sp, #0
  68              		.cfi_def_cfa_register 7
  69 0006 F860     		str	r0, [r7, #12]
  70 0008 B960     		str	r1, [r7, #8]
  71 000a 7A60     		str	r2, [r7, #4]
  66:.\Generated_Source\PSoC4/cyfitter_cfg.c **** 	(void)memcpy(dest, src, n);
  72              		.loc 1 66 0
  73 000c F968     		ldr	r1, [r7, #12]
  74 000e BA68     		ldr	r2, [r7, #8]
  75 0010 7B68     		ldr	r3, [r7, #4]
  76 0012 081C     		mov	r0, r1
  77 0014 111C     		mov	r1, r2
  78 0016 1A1C     		mov	r2, r3
  79 0018 FFF7FEFF 		bl	memcpy
  67:.\Generated_Source\PSoC4/cyfitter_cfg.c **** }
  80              		.loc 1 67 0
  81 001c BD46     		mov	sp, r7
  82 001e 04B0     		add	sp, sp, #16
  83              		@ sp needed
  84 0020 80BD     		pop	{r7, pc}
  85              		.cfi_endproc
  86              	.LFE3:
  87              		.size	CYCONFIGCPY, .-CYCONFIGCPY
  88 0022 C046     		.section	.text.CYCONFIGCPYCODE,"ax",%progbits
  89              		.align	2
  90              		.code	16
  91              		.thumb_func
  92              		.type	CYCONFIGCPYCODE, %function
  93              	CYCONFIGCPYCODE:
  94              	.LFB4:
  68:.\Generated_Source\PSoC4/cyfitter_cfg.c **** CY_CFG_UNUSED
  69:.\Generated_Source\PSoC4/cyfitter_cfg.c **** static void CYCONFIGCPYCODE(void *dest, const void *src, size_t n);
  70:.\Generated_Source\PSoC4/cyfitter_cfg.c **** CY_CFG_UNUSED
  71:.\Generated_Source\PSoC4/cyfitter_cfg.c **** static void CYCONFIGCPYCODE(void *dest, const void *src, size_t n)
  72:.\Generated_Source\PSoC4/cyfitter_cfg.c **** {
  95              		.loc 1 72 0
  96              		.cfi_startproc
  97 0000 80B5     		push	{r7, lr}
  98              		.cfi_def_cfa_offset 8
  99              		.cfi_offset 7, -8
ARM GAS  C:\Users\MANISH~1\AppData\Local\Temp\ccB4xhqf.s 			page 4


 100              		.cfi_offset 14, -4
 101 0002 84B0     		sub	sp, sp, #16
 102              		.cfi_def_cfa_offset 24
 103 0004 00AF     		add	r7, sp, #0
 104              		.cfi_def_cfa_register 7
 105 0006 F860     		str	r0, [r7, #12]
 106 0008 B960     		str	r1, [r7, #8]
 107 000a 7A60     		str	r2, [r7, #4]
  73:.\Generated_Source\PSoC4/cyfitter_cfg.c **** 	(void)memcpy(dest, src, n);
 108              		.loc 1 73 0
 109 000c F968     		ldr	r1, [r7, #12]
 110 000e BA68     		ldr	r2, [r7, #8]
 111 0010 7B68     		ldr	r3, [r7, #4]
 112 0012 081C     		mov	r0, r1
 113 0014 111C     		mov	r1, r2
 114 0016 1A1C     		mov	r2, r3
 115 0018 FFF7FEFF 		bl	memcpy
  74:.\Generated_Source\PSoC4/cyfitter_cfg.c **** }
 116              		.loc 1 74 0
 117 001c BD46     		mov	sp, r7
 118 001e 04B0     		add	sp, sp, #16
 119              		@ sp needed
 120 0020 80BD     		pop	{r7, pc}
 121              		.cfi_endproc
 122              	.LFE4:
 123              		.size	CYCONFIGCPYCODE, .-CYCONFIGCPYCODE
 124 0022 C046     		.section	.text.cfg_write_bytes32,"ax",%progbits
 125              		.align	2
 126              		.code	16
 127              		.thumb_func
 128              		.type	cfg_write_bytes32, %function
 129              	cfg_write_bytes32:
 130              	.LFB5:
  75:.\Generated_Source\PSoC4/cyfitter_cfg.c **** 
  76:.\Generated_Source\PSoC4/cyfitter_cfg.c **** 
  77:.\Generated_Source\PSoC4/cyfitter_cfg.c **** 
  78:.\Generated_Source\PSoC4/cyfitter_cfg.c **** /* Clock startup error codes                                                   */
  79:.\Generated_Source\PSoC4/cyfitter_cfg.c **** #define CYCLOCKSTART_NO_ERROR    0u
  80:.\Generated_Source\PSoC4/cyfitter_cfg.c **** #define CYCLOCKSTART_XTAL_ERROR  1u
  81:.\Generated_Source\PSoC4/cyfitter_cfg.c **** #define CYCLOCKSTART_32KHZ_ERROR 2u
  82:.\Generated_Source\PSoC4/cyfitter_cfg.c **** #define CYCLOCKSTART_PLL_ERROR   3u
  83:.\Generated_Source\PSoC4/cyfitter_cfg.c **** 
  84:.\Generated_Source\PSoC4/cyfitter_cfg.c **** #ifdef CY_NEED_CYCLOCKSTARTUPERROR
  85:.\Generated_Source\PSoC4/cyfitter_cfg.c **** /*******************************************************************************
  86:.\Generated_Source\PSoC4/cyfitter_cfg.c **** * Function Name: CyClockStartupError
  87:.\Generated_Source\PSoC4/cyfitter_cfg.c **** ********************************************************************************
  88:.\Generated_Source\PSoC4/cyfitter_cfg.c **** * Summary:
  89:.\Generated_Source\PSoC4/cyfitter_cfg.c **** *  If an error is encountered during clock configuration (crystal startup error,
  90:.\Generated_Source\PSoC4/cyfitter_cfg.c **** *  PLL lock error, etc.), the system will end up here.  Unless reimplemented by
  91:.\Generated_Source\PSoC4/cyfitter_cfg.c **** *  the customer, this function will stop in an infinite loop.
  92:.\Generated_Source\PSoC4/cyfitter_cfg.c **** *
  93:.\Generated_Source\PSoC4/cyfitter_cfg.c **** * Parameters:
  94:.\Generated_Source\PSoC4/cyfitter_cfg.c **** *   void
  95:.\Generated_Source\PSoC4/cyfitter_cfg.c **** *
  96:.\Generated_Source\PSoC4/cyfitter_cfg.c **** * Return:
  97:.\Generated_Source\PSoC4/cyfitter_cfg.c **** *   void
  98:.\Generated_Source\PSoC4/cyfitter_cfg.c **** *
ARM GAS  C:\Users\MANISH~1\AppData\Local\Temp\ccB4xhqf.s 			page 5


  99:.\Generated_Source\PSoC4/cyfitter_cfg.c **** *******************************************************************************/
 100:.\Generated_Source\PSoC4/cyfitter_cfg.c **** CY_CFG_UNUSED
 101:.\Generated_Source\PSoC4/cyfitter_cfg.c **** static void CyClockStartupError(uint8 errorCode);
 102:.\Generated_Source\PSoC4/cyfitter_cfg.c **** CY_CFG_UNUSED
 103:.\Generated_Source\PSoC4/cyfitter_cfg.c **** static void CyClockStartupError(uint8 errorCode)
 104:.\Generated_Source\PSoC4/cyfitter_cfg.c **** {
 105:.\Generated_Source\PSoC4/cyfitter_cfg.c ****     /* To remove the compiler warning if errorCode not used.                */
 106:.\Generated_Source\PSoC4/cyfitter_cfg.c ****     errorCode = errorCode;
 107:.\Generated_Source\PSoC4/cyfitter_cfg.c **** 
 108:.\Generated_Source\PSoC4/cyfitter_cfg.c ****     /* `#START CyClockStartupError` */
 109:.\Generated_Source\PSoC4/cyfitter_cfg.c **** 
 110:.\Generated_Source\PSoC4/cyfitter_cfg.c ****     /* If we have a clock startup error (bad MHz crystal, PLL lock, etc.),  */
 111:.\Generated_Source\PSoC4/cyfitter_cfg.c ****     /* we will end up here to allow the customer to implement something to  */
 112:.\Generated_Source\PSoC4/cyfitter_cfg.c ****     /* deal with the clock condition.                                       */
 113:.\Generated_Source\PSoC4/cyfitter_cfg.c **** 
 114:.\Generated_Source\PSoC4/cyfitter_cfg.c ****     /* `#END` */
 115:.\Generated_Source\PSoC4/cyfitter_cfg.c **** 
 116:.\Generated_Source\PSoC4/cyfitter_cfg.c ****     /* If nothing else, stop here since the clocks have not started         */
 117:.\Generated_Source\PSoC4/cyfitter_cfg.c ****     /* correctly.                                                           */
 118:.\Generated_Source\PSoC4/cyfitter_cfg.c ****     while(1) {}
 119:.\Generated_Source\PSoC4/cyfitter_cfg.c **** }
 120:.\Generated_Source\PSoC4/cyfitter_cfg.c **** #endif
 121:.\Generated_Source\PSoC4/cyfitter_cfg.c **** 
 122:.\Generated_Source\PSoC4/cyfitter_cfg.c **** #define CY_CFG_BASE_ADDR_COUNT 3u
 123:.\Generated_Source\PSoC4/cyfitter_cfg.c **** CYPACKED typedef struct
 124:.\Generated_Source\PSoC4/cyfitter_cfg.c **** {
 125:.\Generated_Source\PSoC4/cyfitter_cfg.c **** 	uint8 offset;
 126:.\Generated_Source\PSoC4/cyfitter_cfg.c **** 	uint8 value;
 127:.\Generated_Source\PSoC4/cyfitter_cfg.c **** } CYPACKED_ATTR cy_cfg_addrvalue_t;
 128:.\Generated_Source\PSoC4/cyfitter_cfg.c **** 
 129:.\Generated_Source\PSoC4/cyfitter_cfg.c **** 
 130:.\Generated_Source\PSoC4/cyfitter_cfg.c **** 
 131:.\Generated_Source\PSoC4/cyfitter_cfg.c **** /*******************************************************************************
 132:.\Generated_Source\PSoC4/cyfitter_cfg.c **** * Function Name: cfg_write_bytes32
 133:.\Generated_Source\PSoC4/cyfitter_cfg.c **** ********************************************************************************
 134:.\Generated_Source\PSoC4/cyfitter_cfg.c **** * Summary:
 135:.\Generated_Source\PSoC4/cyfitter_cfg.c **** *  This function is used for setting up the chip configuration areas that
 136:.\Generated_Source\PSoC4/cyfitter_cfg.c **** *  contain relatively sparse data.
 137:.\Generated_Source\PSoC4/cyfitter_cfg.c **** *
 138:.\Generated_Source\PSoC4/cyfitter_cfg.c **** * Parameters:
 139:.\Generated_Source\PSoC4/cyfitter_cfg.c **** *   void
 140:.\Generated_Source\PSoC4/cyfitter_cfg.c **** *
 141:.\Generated_Source\PSoC4/cyfitter_cfg.c **** * Return:
 142:.\Generated_Source\PSoC4/cyfitter_cfg.c **** *   void
 143:.\Generated_Source\PSoC4/cyfitter_cfg.c **** *
 144:.\Generated_Source\PSoC4/cyfitter_cfg.c **** *******************************************************************************/
 145:.\Generated_Source\PSoC4/cyfitter_cfg.c **** static void cfg_write_bytes32(const uint32 addr_table[], const cy_cfg_addrvalue_t data_table[]);
 146:.\Generated_Source\PSoC4/cyfitter_cfg.c **** static void cfg_write_bytes32(const uint32 addr_table[], const cy_cfg_addrvalue_t data_table[])
 147:.\Generated_Source\PSoC4/cyfitter_cfg.c **** {
 131              		.loc 1 147 0
 132              		.cfi_startproc
 133 0000 80B5     		push	{r7, lr}
 134              		.cfi_def_cfa_offset 8
 135              		.cfi_offset 7, -8
 136              		.cfi_offset 14, -4
 137 0002 86B0     		sub	sp, sp, #24
 138              		.cfi_def_cfa_offset 32
ARM GAS  C:\Users\MANISH~1\AppData\Local\Temp\ccB4xhqf.s 			page 6


 139 0004 00AF     		add	r7, sp, #0
 140              		.cfi_def_cfa_register 7
 141 0006 7860     		str	r0, [r7, #4]
 142 0008 3960     		str	r1, [r7]
 148:.\Generated_Source\PSoC4/cyfitter_cfg.c **** 	/* For 32-bit little-endian architectures */
 149:.\Generated_Source\PSoC4/cyfitter_cfg.c **** 	uint32 i, j = 0u;
 143              		.loc 1 149 0
 144 000a 0023     		mov	r3, #0
 145 000c 3B61     		str	r3, [r7, #16]
 150:.\Generated_Source\PSoC4/cyfitter_cfg.c **** 	for (i = 0u; i < CY_CFG_BASE_ADDR_COUNT; i++)
 146              		.loc 1 150 0
 147 000e 0023     		mov	r3, #0
 148 0010 7B61     		str	r3, [r7, #20]
 149 0012 2EE0     		b	.L5
 150              	.L8:
 151              	.LBB2:
 151:.\Generated_Source\PSoC4/cyfitter_cfg.c **** 	{
 152:.\Generated_Source\PSoC4/cyfitter_cfg.c **** 		uint32 baseAddr = addr_table[i];
 152              		.loc 1 152 0
 153 0014 7B69     		ldr	r3, [r7, #20]
 154 0016 9B00     		lsl	r3, r3, #2
 155 0018 7A68     		ldr	r2, [r7, #4]
 156 001a D318     		add	r3, r2, r3
 157 001c 1B68     		ldr	r3, [r3]
 158 001e BB60     		str	r3, [r7, #8]
 153:.\Generated_Source\PSoC4/cyfitter_cfg.c **** 		uint8 count = (uint8)baseAddr;
 159              		.loc 1 153 0
 160 0020 3B1C     		mov	r3, r7
 161 0022 0F33     		add	r3, r3, #15
 162 0024 BA68     		ldr	r2, [r7, #8]
 163 0026 1A70     		strb	r2, [r3]
 154:.\Generated_Source\PSoC4/cyfitter_cfg.c **** 		baseAddr &= 0xFFFFFF00u;
 164              		.loc 1 154 0
 165 0028 BB68     		ldr	r3, [r7, #8]
 166 002a FF22     		mov	r2, #255
 167 002c 9343     		bic	r3, r2
 168 002e BB60     		str	r3, [r7, #8]
 155:.\Generated_Source\PSoC4/cyfitter_cfg.c **** 		while (count != 0u)
 169              		.loc 1 155 0
 170 0030 17E0     		b	.L6
 171              	.L7:
 156:.\Generated_Source\PSoC4/cyfitter_cfg.c **** 		{
 157:.\Generated_Source\PSoC4/cyfitter_cfg.c **** 			CY_SET_XTND_REG8((void CYFAR *)(baseAddr + data_table[j].offset), data_table[j].value);
 172              		.loc 1 157 0
 173 0032 3B69     		ldr	r3, [r7, #16]
 174 0034 5B00     		lsl	r3, r3, #1
 175 0036 3A68     		ldr	r2, [r7]
 176 0038 D318     		add	r3, r2, r3
 177 003a 1B78     		ldrb	r3, [r3]
 178 003c 1A1C     		mov	r2, r3
 179 003e BB68     		ldr	r3, [r7, #8]
 180 0040 D318     		add	r3, r2, r3
 181 0042 3A69     		ldr	r2, [r7, #16]
 182 0044 5200     		lsl	r2, r2, #1
 183 0046 3968     		ldr	r1, [r7]
 184 0048 8A18     		add	r2, r1, r2
 185 004a 5278     		ldrb	r2, [r2, #1]
ARM GAS  C:\Users\MANISH~1\AppData\Local\Temp\ccB4xhqf.s 			page 7


 186 004c 1A70     		strb	r2, [r3]
 158:.\Generated_Source\PSoC4/cyfitter_cfg.c **** 			j++;
 187              		.loc 1 158 0
 188 004e 3B69     		ldr	r3, [r7, #16]
 189 0050 0133     		add	r3, r3, #1
 190 0052 3B61     		str	r3, [r7, #16]
 159:.\Generated_Source\PSoC4/cyfitter_cfg.c **** 			count--;
 191              		.loc 1 159 0
 192 0054 3B1C     		mov	r3, r7
 193 0056 0F33     		add	r3, r3, #15
 194 0058 1A78     		ldrb	r2, [r3]
 195 005a 3B1C     		mov	r3, r7
 196 005c 0F33     		add	r3, r3, #15
 197 005e 013A     		sub	r2, r2, #1
 198 0060 1A70     		strb	r2, [r3]
 199              	.L6:
 155:.\Generated_Source\PSoC4/cyfitter_cfg.c **** 		while (count != 0u)
 200              		.loc 1 155 0 discriminator 1
 201 0062 3B1C     		mov	r3, r7
 202 0064 0F33     		add	r3, r3, #15
 203 0066 1B78     		ldrb	r3, [r3]
 204 0068 002B     		cmp	r3, #0
 205 006a E2D1     		bne	.L7
 206              	.LBE2:
 150:.\Generated_Source\PSoC4/cyfitter_cfg.c **** 	for (i = 0u; i < CY_CFG_BASE_ADDR_COUNT; i++)
 207              		.loc 1 150 0
 208 006c 7B69     		ldr	r3, [r7, #20]
 209 006e 0133     		add	r3, r3, #1
 210 0070 7B61     		str	r3, [r7, #20]
 211              	.L5:
 150:.\Generated_Source\PSoC4/cyfitter_cfg.c **** 	for (i = 0u; i < CY_CFG_BASE_ADDR_COUNT; i++)
 212              		.loc 1 150 0 is_stmt 0 discriminator 1
 213 0072 7B69     		ldr	r3, [r7, #20]
 214 0074 022B     		cmp	r3, #2
 215 0076 CDD9     		bls	.L8
 160:.\Generated_Source\PSoC4/cyfitter_cfg.c **** 		}
 161:.\Generated_Source\PSoC4/cyfitter_cfg.c **** 	}
 162:.\Generated_Source\PSoC4/cyfitter_cfg.c **** }
 216              		.loc 1 162 0 is_stmt 1
 217 0078 BD46     		mov	sp, r7
 218 007a 06B0     		add	sp, sp, #24
 219              		@ sp needed
 220 007c 80BD     		pop	{r7, pc}
 221              		.cfi_endproc
 222              	.LFE5:
 223              		.size	cfg_write_bytes32, .-cfg_write_bytes32
 224 007e C046     		.section	.psocinit,"ax",%progbits
 225              		.align	2
 226              		.code	16
 227              		.thumb_func
 228              		.type	SetIMOBGTrims, %function
 229              	SetIMOBGTrims:
 230              	.LFB6:
 163:.\Generated_Source\PSoC4/cyfitter_cfg.c **** 
 164:.\Generated_Source\PSoC4/cyfitter_cfg.c **** /*******************************************************************************
 165:.\Generated_Source\PSoC4/cyfitter_cfg.c **** * Function Name: SetIMOBGTrims
 166:.\Generated_Source\PSoC4/cyfitter_cfg.c **** ********************************************************************************
ARM GAS  C:\Users\MANISH~1\AppData\Local\Temp\ccB4xhqf.s 			page 8


 167:.\Generated_Source\PSoC4/cyfitter_cfg.c **** *
 168:.\Generated_Source\PSoC4/cyfitter_cfg.c **** * Summary:
 169:.\Generated_Source\PSoC4/cyfitter_cfg.c **** *   Performs the configuration of the bandgap trim for the IMO based on the given
 170:.\Generated_Source\PSoC4/cyfitter_cfg.c **** *   expected frequency of the IMO. 
 171:.\Generated_Source\PSoC4/cyfitter_cfg.c **** *
 172:.\Generated_Source\PSoC4/cyfitter_cfg.c **** * Parameters:
 173:.\Generated_Source\PSoC4/cyfitter_cfg.c **** *   imoFreq: Frequency for operation of the IMO.
 174:.\Generated_Source\PSoC4/cyfitter_cfg.c **** *
 175:.\Generated_Source\PSoC4/cyfitter_cfg.c **** * Return:
 176:.\Generated_Source\PSoC4/cyfitter_cfg.c **** *   void
 177:.\Generated_Source\PSoC4/cyfitter_cfg.c **** *
 178:.\Generated_Source\PSoC4/cyfitter_cfg.c **** *******************************************************************************/
 179:.\Generated_Source\PSoC4/cyfitter_cfg.c **** static void SetIMOBGTrims(uint8 imoFreq);
 180:.\Generated_Source\PSoC4/cyfitter_cfg.c **** CY_CFG_SECTION
 181:.\Generated_Source\PSoC4/cyfitter_cfg.c **** static void SetIMOBGTrims(uint8 imoFreq)
 182:.\Generated_Source\PSoC4/cyfitter_cfg.c **** {
 231              		.loc 1 182 0
 232              		.cfi_startproc
 233 0000 80B5     		push	{r7, lr}
 234              		.cfi_def_cfa_offset 8
 235              		.cfi_offset 7, -8
 236              		.cfi_offset 14, -4
 237 0002 84B0     		sub	sp, sp, #16
 238              		.cfi_def_cfa_offset 24
 239 0004 00AF     		add	r7, sp, #0
 240              		.cfi_def_cfa_register 7
 241 0006 021C     		mov	r2, r0
 242 0008 FB1D     		add	r3, r7, #7
 243 000a 1A70     		strb	r2, [r3]
 183:.\Generated_Source\PSoC4/cyfitter_cfg.c **** 	CYPACKED typedef struct {
 184:.\Generated_Source\PSoC4/cyfitter_cfg.c **** 		uint8 freq;
 185:.\Generated_Source\PSoC4/cyfitter_cfg.c **** 		uint8 absolute;
 186:.\Generated_Source\PSoC4/cyfitter_cfg.c **** 		uint8 tmpco;
 187:.\Generated_Source\PSoC4/cyfitter_cfg.c **** 	} CYPACKED_ATTR imo_trim_entry_t;
 188:.\Generated_Source\PSoC4/cyfitter_cfg.c **** 
 189:.\Generated_Source\PSoC4/cyfitter_cfg.c **** 	CYPACKED typedef struct {
 190:.\Generated_Source\PSoC4/cyfitter_cfg.c **** 		imo_trim_entry_t entries[4];
 191:.\Generated_Source\PSoC4/cyfitter_cfg.c **** 	} CYPACKED_ATTR imo_trim_table_t;
 192:.\Generated_Source\PSoC4/cyfitter_cfg.c **** 
 193:.\Generated_Source\PSoC4/cyfitter_cfg.c **** 	static const imo_trim_table_t *imo_trim_table = (const imo_trim_table_t *)CYREG_SFLASH_IMO_MAXF0;
 194:.\Generated_Source\PSoC4/cyfitter_cfg.c **** 	static const uint32 IMO_TRIM_FREQ_TABLE_ENTRIES = sizeof(imo_trim_table->entries)/sizeof(imo_trim_
 195:.\Generated_Source\PSoC4/cyfitter_cfg.c **** 
 196:.\Generated_Source\PSoC4/cyfitter_cfg.c **** 	int32 imoTrimIndex;
 197:.\Generated_Source\PSoC4/cyfitter_cfg.c **** 	uint8 setAbs;
 198:.\Generated_Source\PSoC4/cyfitter_cfg.c **** 	uint8 setTmpCo;
 199:.\Generated_Source\PSoC4/cyfitter_cfg.c **** 
 200:.\Generated_Source\PSoC4/cyfitter_cfg.c **** 	/* Traverse the SFLASH IMO frequency-dependent bandgap trim table to
 201:.\Generated_Source\PSoC4/cyfitter_cfg.c **** 	 * locate the appropriate value to trim the IMO bandgap based on freq. */
 202:.\Generated_Source\PSoC4/cyfitter_cfg.c **** 	setAbs = CY_GET_REG8((const void *)CYREG_SFLASH_IMO_ABS4);
 244              		.loc 1 202 0
 245 000c 204A     		ldr	r2, .L13
 246 000e 3B1C     		mov	r3, r7
 247 0010 0B33     		add	r3, r3, #11
 248 0012 1278     		ldrb	r2, [r2]
 249 0014 1A70     		strb	r2, [r3]
 203:.\Generated_Source\PSoC4/cyfitter_cfg.c **** 	setTmpCo = CY_GET_REG8((const void *)CYREG_SFLASH_IMO_TMPCO4);
 250              		.loc 1 203 0
ARM GAS  C:\Users\MANISH~1\AppData\Local\Temp\ccB4xhqf.s 			page 9


 251 0016 1F4A     		ldr	r2, .L13+4
 252 0018 3B1C     		mov	r3, r7
 253 001a 0A33     		add	r3, r3, #10
 254 001c 1278     		ldrb	r2, [r2]
 255 001e 1A70     		strb	r2, [r3]
 204:.\Generated_Source\PSoC4/cyfitter_cfg.c **** 	for (imoTrimIndex = ((int32)IMO_TRIM_FREQ_TABLE_ENTRIES)-1;
 256              		.loc 1 204 0
 257 0020 0423     		mov	r3, #4
 258 0022 013B     		sub	r3, r3, #1
 259 0024 FB60     		str	r3, [r7, #12]
 260 0026 18E0     		b	.L10
 261              	.L12:
 205:.\Generated_Source\PSoC4/cyfitter_cfg.c **** 	     (imoTrimIndex >= 0) && (imoFreq <= imo_trim_table->entries[imoTrimIndex].freq);
 206:.\Generated_Source\PSoC4/cyfitter_cfg.c **** 	     imoTrimIndex--)
 207:.\Generated_Source\PSoC4/cyfitter_cfg.c **** 	{
 208:.\Generated_Source\PSoC4/cyfitter_cfg.c **** 		setAbs = imo_trim_table->entries[imoTrimIndex].absolute;
 262              		.loc 1 208 0
 263 0028 1B4B     		ldr	r3, .L13+8
 264 002a 1868     		ldr	r0, [r3]
 265 002c 391C     		mov	r1, r7
 266 002e 0B31     		add	r1, r1, #11
 267 0030 FA68     		ldr	r2, [r7, #12]
 268 0032 131C     		mov	r3, r2
 269 0034 5B00     		lsl	r3, r3, #1
 270 0036 9B18     		add	r3, r3, r2
 271 0038 C318     		add	r3, r0, r3
 272 003a 5B78     		ldrb	r3, [r3, #1]
 273 003c 0B70     		strb	r3, [r1]
 209:.\Generated_Source\PSoC4/cyfitter_cfg.c **** 		setTmpCo = imo_trim_table->entries[imoTrimIndex].tmpco;
 274              		.loc 1 209 0
 275 003e 164B     		ldr	r3, .L13+8
 276 0040 1868     		ldr	r0, [r3]
 277 0042 391C     		mov	r1, r7
 278 0044 0A31     		add	r1, r1, #10
 279 0046 FA68     		ldr	r2, [r7, #12]
 280 0048 131C     		mov	r3, r2
 281 004a 5B00     		lsl	r3, r3, #1
 282 004c 9B18     		add	r3, r3, r2
 283 004e C318     		add	r3, r0, r3
 284 0050 9B78     		ldrb	r3, [r3, #2]
 285 0052 0B70     		strb	r3, [r1]
 206:.\Generated_Source\PSoC4/cyfitter_cfg.c **** 	     imoTrimIndex--)
 286              		.loc 1 206 0
 287 0054 FB68     		ldr	r3, [r7, #12]
 288 0056 013B     		sub	r3, r3, #1
 289 0058 FB60     		str	r3, [r7, #12]
 290              	.L10:
 204:.\Generated_Source\PSoC4/cyfitter_cfg.c **** 	for (imoTrimIndex = ((int32)IMO_TRIM_FREQ_TABLE_ENTRIES)-1;
 291              		.loc 1 204 0 discriminator 1
 292 005a FB68     		ldr	r3, [r7, #12]
 293 005c 002B     		cmp	r3, #0
 294 005e 0ADB     		blt	.L11
 205:.\Generated_Source\PSoC4/cyfitter_cfg.c **** 	     (imoTrimIndex >= 0) && (imoFreq <= imo_trim_table->entries[imoTrimIndex].freq);
 295              		.loc 1 205 0
 296 0060 0D4B     		ldr	r3, .L13+8
 297 0062 1968     		ldr	r1, [r3]
 298 0064 FA68     		ldr	r2, [r7, #12]
ARM GAS  C:\Users\MANISH~1\AppData\Local\Temp\ccB4xhqf.s 			page 10


 299 0066 131C     		mov	r3, r2
 300 0068 5B00     		lsl	r3, r3, #1
 301 006a 9B18     		add	r3, r3, r2
 302 006c 5B5C     		ldrb	r3, [r3, r1]
 303 006e FA1D     		add	r2, r7, #7
 304 0070 1278     		ldrb	r2, [r2]
 305 0072 9A42     		cmp	r2, r3
 306 0074 D8D9     		bls	.L12
 307              	.L11:
 210:.\Generated_Source\PSoC4/cyfitter_cfg.c **** 	}
 211:.\Generated_Source\PSoC4/cyfitter_cfg.c **** 
 212:.\Generated_Source\PSoC4/cyfitter_cfg.c **** 	CY_SET_REG32((void *)CYREG_PWR_BG_TRIM4, setAbs);
 308              		.loc 1 212 0
 309 0076 094B     		ldr	r3, .L13+12
 310 0078 3A1C     		mov	r2, r7
 311 007a 0B32     		add	r2, r2, #11
 312 007c 1278     		ldrb	r2, [r2]
 313 007e 1A60     		str	r2, [r3]
 213:.\Generated_Source\PSoC4/cyfitter_cfg.c **** 	CY_SET_REG32((void *)CYREG_PWR_BG_TRIM5, setTmpCo);
 314              		.loc 1 213 0
 315 0080 074B     		ldr	r3, .L13+16
 316 0082 3A1C     		mov	r2, r7
 317 0084 0A32     		add	r2, r2, #10
 318 0086 1278     		ldrb	r2, [r2]
 319 0088 1A60     		str	r2, [r3]
 214:.\Generated_Source\PSoC4/cyfitter_cfg.c **** }
 320              		.loc 1 214 0
 321 008a BD46     		mov	sp, r7
 322 008c 04B0     		add	sp, sp, #16
 323              		@ sp needed
 324 008e 80BD     		pop	{r7, pc}
 325              	.L14:
 326              		.align	2
 327              	.L13:
 328 0090 CCF1FF0F 		.word	268431820
 329 0094 CDF1FF0F 		.word	268431821
 330 0098 00000000 		.word	imo_trim_table.4740
 331 009c 1CFF0B40 		.word	1074528028
 332 00a0 20FF0B40 		.word	1074528032
 333              		.cfi_endproc
 334              	.LFE6:
 335              		.size	SetIMOBGTrims, .-SetIMOBGTrims
 336              		.align	2
 337              		.code	16
 338              		.thumb_func
 339              		.type	ClockSetup, %function
 340              	ClockSetup:
 341              	.LFB7:
 215:.\Generated_Source\PSoC4/cyfitter_cfg.c **** 
 216:.\Generated_Source\PSoC4/cyfitter_cfg.c **** 
 217:.\Generated_Source\PSoC4/cyfitter_cfg.c **** 
 218:.\Generated_Source\PSoC4/cyfitter_cfg.c **** /*******************************************************************************
 219:.\Generated_Source\PSoC4/cyfitter_cfg.c **** * Function Name: ClockSetup
 220:.\Generated_Source\PSoC4/cyfitter_cfg.c **** ********************************************************************************
 221:.\Generated_Source\PSoC4/cyfitter_cfg.c **** *
 222:.\Generated_Source\PSoC4/cyfitter_cfg.c **** * Summary:
 223:.\Generated_Source\PSoC4/cyfitter_cfg.c **** *   Performs the initialization of all of the clocks in the device based on the
ARM GAS  C:\Users\MANISH~1\AppData\Local\Temp\ccB4xhqf.s 			page 11


 224:.\Generated_Source\PSoC4/cyfitter_cfg.c **** *   settings in the Clock tab of the DWR.  This includes enabling the requested
 225:.\Generated_Source\PSoC4/cyfitter_cfg.c **** *   clocks and setting the necessary dividers to produce the desired frequency. 
 226:.\Generated_Source\PSoC4/cyfitter_cfg.c **** *
 227:.\Generated_Source\PSoC4/cyfitter_cfg.c **** * Parameters:
 228:.\Generated_Source\PSoC4/cyfitter_cfg.c **** *   void
 229:.\Generated_Source\PSoC4/cyfitter_cfg.c **** *
 230:.\Generated_Source\PSoC4/cyfitter_cfg.c **** * Return:
 231:.\Generated_Source\PSoC4/cyfitter_cfg.c **** *   void
 232:.\Generated_Source\PSoC4/cyfitter_cfg.c **** *
 233:.\Generated_Source\PSoC4/cyfitter_cfg.c **** *******************************************************************************/
 234:.\Generated_Source\PSoC4/cyfitter_cfg.c **** static void ClockSetup(void);
 235:.\Generated_Source\PSoC4/cyfitter_cfg.c **** CY_CFG_SECTION
 236:.\Generated_Source\PSoC4/cyfitter_cfg.c **** static void ClockSetup(void)
 237:.\Generated_Source\PSoC4/cyfitter_cfg.c **** {
 342              		.loc 1 237 0
 343              		.cfi_startproc
 344 00a4 80B5     		push	{r7, lr}
 345              		.cfi_def_cfa_offset 8
 346              		.cfi_offset 7, -8
 347              		.cfi_offset 14, -4
 348 00a6 00AF     		add	r7, sp, #0
 349              		.cfi_def_cfa_register 7
 238:.\Generated_Source\PSoC4/cyfitter_cfg.c **** 
 239:.\Generated_Source\PSoC4/cyfitter_cfg.c **** 	/* Set Flash Cycles based on max possible frequency in case a glitch occurs during ClockSetup(). *
 240:.\Generated_Source\PSoC4/cyfitter_cfg.c **** 	CY_SET_REG32((void CYXDATA *)(CYREG_CPUSS_FLASH_CTL), (0x0012u));
 350              		.loc 1 240 0
 351 00a8 244B     		ldr	r3, .L16
 352 00aa 1222     		mov	r2, #18
 353 00ac 1A60     		str	r2, [r3]
 241:.\Generated_Source\PSoC4/cyfitter_cfg.c **** 	/* Trim IMO BG based on desired frequency. */
 242:.\Generated_Source\PSoC4/cyfitter_cfg.c **** 	SetIMOBGTrims(12u);
 354              		.loc 1 242 0
 355 00ae 0C20     		mov	r0, #12
 356 00b0 FFF7A6FF 		bl	SetIMOBGTrims
 243:.\Generated_Source\PSoC4/cyfitter_cfg.c **** 
 244:.\Generated_Source\PSoC4/cyfitter_cfg.c **** 	/* Going less than or equal to 24MHz, so update the clock speed then adjust trim value. */
 245:.\Generated_Source\PSoC4/cyfitter_cfg.c **** 	CY_SET_REG32((void CYXDATA *)(CYREG_CLK_IMO_TRIM2), (12u));
 357              		.loc 1 245 0
 358 00b4 224B     		ldr	r3, .L16+4
 359 00b6 0C22     		mov	r2, #12
 360 00b8 1A60     		str	r2, [r3]
 246:.\Generated_Source\PSoC4/cyfitter_cfg.c **** 	CyDelayCycles(5u);
 361              		.loc 1 246 0
 362 00ba 0520     		mov	r0, #5
 363 00bc FFF7FEFF 		bl	CyDelayCycles
 247:.\Generated_Source\PSoC4/cyfitter_cfg.c **** 	CY_SET_REG32((void CYXDATA *)(CYREG_CLK_IMO_TRIM1), (CY_GET_REG8((void *)CYREG_SFLASH_IMO_TRIM09))
 364              		.loc 1 247 0
 365 00c0 204B     		ldr	r3, .L16+8
 366 00c2 214A     		ldr	r2, .L16+12
 367 00c4 1278     		ldrb	r2, [r2]
 368 00c6 D2B2     		uxtb	r2, r2
 369 00c8 1A60     		str	r2, [r3]
 248:.\Generated_Source\PSoC4/cyfitter_cfg.c **** 	CyDelayUs(5u);
 370              		.loc 1 248 0
 371 00ca 0520     		mov	r0, #5
 372 00cc FFF7FEFF 		bl	CyDelayUs
 249:.\Generated_Source\PSoC4/cyfitter_cfg.c **** 
ARM GAS  C:\Users\MANISH~1\AppData\Local\Temp\ccB4xhqf.s 			page 12


 250:.\Generated_Source\PSoC4/cyfitter_cfg.c **** 	/* Start the WCO */
 251:.\Generated_Source\PSoC4/cyfitter_cfg.c **** 	CySysClkWcoStart();
 373              		.loc 1 251 0
 374 00d0 FFF7FEFF 		bl	CySysClkWcoStart
 252:.\Generated_Source\PSoC4/cyfitter_cfg.c **** 	CyDelay(500u); /* WCO may take up to 500ms to start */
 375              		.loc 1 252 0
 376 00d4 FA23     		mov	r3, #250
 377 00d6 5B00     		lsl	r3, r3, #1
 378 00d8 181C     		mov	r0, r3
 379 00da FFF7FEFF 		bl	CyDelay
 253:.\Generated_Source\PSoC4/cyfitter_cfg.c **** 	(void)CySysClkWcoSetPowerMode(CY_SYS_CLK_WCO_LPM);    /* Switch to the low power mode */
 380              		.loc 1 253 0
 381 00de 0120     		mov	r0, #1
 382 00e0 FFF7FEFF 		bl	CySysClkWcoSetPowerMode
 254:.\Generated_Source\PSoC4/cyfitter_cfg.c **** 	/* CYDEV_CLK_ILO_CONFIG Starting address: CYDEV_CLK_ILO_CONFIG */
 255:.\Generated_Source\PSoC4/cyfitter_cfg.c **** 	CY_SET_XTND_REG32((void CYFAR *)(CYREG_CLK_ILO_CONFIG), 0x80000006u);
 383              		.loc 1 255 0
 384 00e4 194B     		ldr	r3, .L16+16
 385 00e6 1A4A     		ldr	r2, .L16+20
 386 00e8 1A60     		str	r2, [r3]
 256:.\Generated_Source\PSoC4/cyfitter_cfg.c **** 
 257:.\Generated_Source\PSoC4/cyfitter_cfg.c **** 	/* CYDEV_WDT_CONFIG Starting address: CYDEV_WDT_CONFIG */
 258:.\Generated_Source\PSoC4/cyfitter_cfg.c **** 	CY_SET_XTND_REG32((void CYFAR *)(CYREG_WDT_CONFIG), 0x40000000u);
 387              		.loc 1 258 0
 388 00ea 1A4B     		ldr	r3, .L16+24
 389 00ec 8022     		mov	r2, #128
 390 00ee D205     		lsl	r2, r2, #23
 391 00f0 1A60     		str	r2, [r3]
 259:.\Generated_Source\PSoC4/cyfitter_cfg.c **** 
 260:.\Generated_Source\PSoC4/cyfitter_cfg.c **** 
 261:.\Generated_Source\PSoC4/cyfitter_cfg.c **** 	CY_SET_XTND_REG32((void CYFAR *)(CYREG_BLE_BLERD_BB_XO_CAPTRIM), 0x00002D6Au);
 392              		.loc 1 261 0
 393 00f2 194B     		ldr	r3, .L16+28
 394 00f4 194A     		ldr	r2, .L16+32
 395 00f6 1A60     		str	r2, [r3]
 262:.\Generated_Source\PSoC4/cyfitter_cfg.c **** 	/* Disable Crystal Stable Interrupt before enabling ECO */
 263:.\Generated_Source\PSoC4/cyfitter_cfg.c **** 	CY_SET_REG32((void*)CYREG_BLE_BLESS_LL_DSM_CTRL, CY_GET_REG32((void*)CYREG_BLE_BLESS_LL_DSM_CTRL) 
 396              		.loc 1 263 0
 397 00f8 194B     		ldr	r3, .L16+36
 398 00fa 194A     		ldr	r2, .L16+36
 399 00fc 1268     		ldr	r2, [r2]
 400 00fe 0821     		mov	r1, #8
 401 0100 8A43     		bic	r2, r1
 402 0102 1A60     		str	r2, [r3]
 264:.\Generated_Source\PSoC4/cyfitter_cfg.c **** 	/* Start the ECO and do not check status since it is not needed for HFCLK */
 265:.\Generated_Source\PSoC4/cyfitter_cfg.c **** 	(void)CySysClkEcoStart(2000u);
 403              		.loc 1 265 0
 404 0104 FA23     		mov	r3, #250
 405 0106 DB00     		lsl	r3, r3, #3
 406 0108 181C     		mov	r0, r3
 407 010a FFF7FEFF 		bl	CySysClkEcoStart
 266:.\Generated_Source\PSoC4/cyfitter_cfg.c **** 	CyDelayUs(1500u); /* Wait to stabalize */
 408              		.loc 1 266 0
 409 010e 154B     		ldr	r3, .L16+40
 410 0110 181C     		mov	r0, r3
 411 0112 FFF7FEFF 		bl	CyDelayUs
 267:.\Generated_Source\PSoC4/cyfitter_cfg.c **** 
ARM GAS  C:\Users\MANISH~1\AppData\Local\Temp\ccB4xhqf.s 			page 13


 268:.\Generated_Source\PSoC4/cyfitter_cfg.c **** 	/* Setup phase aligned clocks */
 269:.\Generated_Source\PSoC4/cyfitter_cfg.c **** 	CY_SET_REG32((void *)CYREG_PERI_DIV_16_CTL00, 0x00000300u);
 412              		.loc 1 269 0
 413 0116 144B     		ldr	r3, .L16+44
 414 0118 C022     		mov	r2, #192
 415 011a 9200     		lsl	r2, r2, #2
 416 011c 1A60     		str	r2, [r3]
 270:.\Generated_Source\PSoC4/cyfitter_cfg.c **** 	CY_SET_REG32((void *)CYREG_PERI_DIV_CMD, 0x8000FF40u);
 417              		.loc 1 270 0
 418 011e 134B     		ldr	r3, .L16+48
 419 0120 134A     		ldr	r2, .L16+52
 420 0122 1A60     		str	r2, [r3]
 271:.\Generated_Source\PSoC4/cyfitter_cfg.c **** 
 272:.\Generated_Source\PSoC4/cyfitter_cfg.c **** 	/* CYDEV_CLK_IMO_CONFIG Starting address: CYDEV_CLK_IMO_CONFIG */
 273:.\Generated_Source\PSoC4/cyfitter_cfg.c **** 	CY_SET_XTND_REG32((void CYFAR *)(CYREG_CLK_IMO_CONFIG), 0xA6000000u);
 421              		.loc 1 273 0
 422 0124 134B     		ldr	r3, .L16+56
 423 0126 A622     		mov	r2, #166
 424 0128 1206     		lsl	r2, r2, #24
 425 012a 1A60     		str	r2, [r3]
 274:.\Generated_Source\PSoC4/cyfitter_cfg.c **** 
 275:.\Generated_Source\PSoC4/cyfitter_cfg.c **** 	/* CYDEV_PERI_PCLK_CTL06 Starting address: CYDEV_PERI_PCLK_CTL06 */
 276:.\Generated_Source\PSoC4/cyfitter_cfg.c **** 	CY_SET_XTND_REG32((void CYFAR *)(CYREG_PERI_PCLK_CTL06), 0x00000040u);
 426              		.loc 1 276 0
 427 012c 124B     		ldr	r3, .L16+60
 428 012e 4022     		mov	r2, #64
 429 0130 1A60     		str	r2, [r3]
 277:.\Generated_Source\PSoC4/cyfitter_cfg.c **** 
 278:.\Generated_Source\PSoC4/cyfitter_cfg.c **** 	/* Set Flash Cycles based on newly configured 12.00MHz HFCLK. */
 279:.\Generated_Source\PSoC4/cyfitter_cfg.c **** 	CY_SET_REG32((void CYXDATA *)(CYREG_CPUSS_FLASH_CTL), (0x0000u));
 430              		.loc 1 279 0
 431 0132 024B     		ldr	r3, .L16
 432 0134 0022     		mov	r2, #0
 433 0136 1A60     		str	r2, [r3]
 280:.\Generated_Source\PSoC4/cyfitter_cfg.c **** }
 434              		.loc 1 280 0
 435 0138 BD46     		mov	sp, r7
 436              		@ sp needed
 437 013a 80BD     		pop	{r7, pc}
 438              	.L17:
 439              		.align	2
 440              	.L16:
 441 013c 30001040 		.word	1074790448
 442 0140 2CFF0B40 		.word	1074528044
 443 0144 28FF0B40 		.word	1074528040
 444 0148 D9F1FF0F 		.word	268431833
 445 014c 04010B40 		.word	1074462980
 446 0150 06000080 		.word	-2147483642
 447 0154 0C020B40 		.word	1074463244
 448 0158 7C002E40 		.word	1076756604
 449 015c 6A2D0000 		.word	11626
 450 0160 6CF02E40 		.word	1076818028
 451 0164 DC050000 		.word	1500
 452 0168 00030140 		.word	1073808128
 453 016c 00000140 		.word	1073807360
 454 0170 40FF0080 		.word	-2147418304
 455 0174 08010B40 		.word	1074462984
ARM GAS  C:\Users\MANISH~1\AppData\Local\Temp\ccB4xhqf.s 			page 14


 456 0178 18010140 		.word	1073807640
 457              		.cfi_endproc
 458              	.LFE7:
 459              		.size	ClockSetup, .-ClockSetup
 460              		.section	.text.AnalogSetDefault,"ax",%progbits
 461              		.align	2
 462              		.code	16
 463              		.thumb_func
 464              		.type	AnalogSetDefault, %function
 465              	AnalogSetDefault:
 466              	.LFB8:
 281:.\Generated_Source\PSoC4/cyfitter_cfg.c **** 
 282:.\Generated_Source\PSoC4/cyfitter_cfg.c **** 
 283:.\Generated_Source\PSoC4/cyfitter_cfg.c **** /* Analog API Functions */
 284:.\Generated_Source\PSoC4/cyfitter_cfg.c **** 
 285:.\Generated_Source\PSoC4/cyfitter_cfg.c **** 
 286:.\Generated_Source\PSoC4/cyfitter_cfg.c **** /*******************************************************************************
 287:.\Generated_Source\PSoC4/cyfitter_cfg.c **** * Function Name: AnalogSetDefault
 288:.\Generated_Source\PSoC4/cyfitter_cfg.c **** ********************************************************************************
 289:.\Generated_Source\PSoC4/cyfitter_cfg.c **** *
 290:.\Generated_Source\PSoC4/cyfitter_cfg.c **** * Summary:
 291:.\Generated_Source\PSoC4/cyfitter_cfg.c **** *  Sets up the analog portions of the chip to default values based on chip
 292:.\Generated_Source\PSoC4/cyfitter_cfg.c **** *  configuration options from the project.
 293:.\Generated_Source\PSoC4/cyfitter_cfg.c **** *
 294:.\Generated_Source\PSoC4/cyfitter_cfg.c **** * Parameters:
 295:.\Generated_Source\PSoC4/cyfitter_cfg.c **** *  void
 296:.\Generated_Source\PSoC4/cyfitter_cfg.c **** *
 297:.\Generated_Source\PSoC4/cyfitter_cfg.c **** * Return:
 298:.\Generated_Source\PSoC4/cyfitter_cfg.c **** *  void
 299:.\Generated_Source\PSoC4/cyfitter_cfg.c **** *
 300:.\Generated_Source\PSoC4/cyfitter_cfg.c **** *******************************************************************************/
 301:.\Generated_Source\PSoC4/cyfitter_cfg.c **** static void AnalogSetDefault(void);
 302:.\Generated_Source\PSoC4/cyfitter_cfg.c **** static void AnalogSetDefault(void)
 303:.\Generated_Source\PSoC4/cyfitter_cfg.c **** {
 467              		.loc 1 303 0
 468              		.cfi_startproc
 469 0000 80B5     		push	{r7, lr}
 470              		.cfi_def_cfa_offset 8
 471              		.cfi_offset 7, -8
 472              		.cfi_offset 14, -4
 473 0002 00AF     		add	r7, sp, #0
 474              		.cfi_def_cfa_register 7
 304:.\Generated_Source\PSoC4/cyfitter_cfg.c **** 	CY_SET_XTND_REG32((void CYFAR *)CYREG_CTBM0_CTB_CTRL, 0xC0000000u);
 475              		.loc 1 304 0
 476 0004 0E4B     		ldr	r3, .L19
 477 0006 C022     		mov	r2, #192
 478 0008 1206     		lsl	r2, r2, #24
 479 000a 1A60     		str	r2, [r3]
 305:.\Generated_Source\PSoC4/cyfitter_cfg.c **** 	CY_SET_XTND_REG32((void CYFAR *)CYREG_CTBM0_DFT_CTRL, 0x00000003u);
 480              		.loc 1 305 0
 481 000c 0D4B     		ldr	r3, .L19+4
 482 000e 0322     		mov	r2, #3
 483 0010 1A60     		str	r2, [r3]
 306:.\Generated_Source\PSoC4/cyfitter_cfg.c **** 	CY_SET_XTND_REG32((void CYFAR *)CYREG_CTBM0_OA0_SW, 0x00044004u);
 484              		.loc 1 306 0
 485 0012 0D4B     		ldr	r3, .L19+8
 486 0014 0D4A     		ldr	r2, .L19+12
ARM GAS  C:\Users\MANISH~1\AppData\Local\Temp\ccB4xhqf.s 			page 15


 487 0016 1A60     		str	r2, [r3]
 307:.\Generated_Source\PSoC4/cyfitter_cfg.c **** 	CY_SET_XTND_REG32((void CYFAR *)CYREG_CTBM1_DFT_CTRL, 0x00000003u);
 488              		.loc 1 307 0
 489 0018 0D4B     		ldr	r3, .L19+16
 490 001a 0322     		mov	r2, #3
 491 001c 1A60     		str	r2, [r3]
 308:.\Generated_Source\PSoC4/cyfitter_cfg.c **** 	CY_SET_XTND_REG32((void CYFAR *)CYREG_SAR_CTRL, 0x08000000u);
 492              		.loc 1 308 0
 493 001e 0D4B     		ldr	r3, .L19+20
 494 0020 8022     		mov	r2, #128
 495 0022 1205     		lsl	r2, r2, #20
 496 0024 1A60     		str	r2, [r3]
 309:.\Generated_Source\PSoC4/cyfitter_cfg.c **** 	CY_SET_XTND_REG32((void CYFAR *)CYREG_SAR_MUX_SWITCH0, 0x00400000u);
 497              		.loc 1 309 0
 498 0026 0C4B     		ldr	r3, .L19+24
 499 0028 8022     		mov	r2, #128
 500 002a D203     		lsl	r2, r2, #15
 501 002c 1A60     		str	r2, [r3]
 310:.\Generated_Source\PSoC4/cyfitter_cfg.c **** 	CY_SET_XTND_REG32((void CYFAR *)CYREG_PASS_DSAB_DSAB_CTRL, 0x80000103u);
 502              		.loc 1 310 0
 503 002e 0B4B     		ldr	r3, .L19+28
 504 0030 0B4A     		ldr	r2, .L19+32
 505 0032 1A60     		str	r2, [r3]
 311:.\Generated_Source\PSoC4/cyfitter_cfg.c **** 	SetAnalogRoutingPumps(1);
 506              		.loc 1 311 0
 507 0034 0120     		mov	r0, #1
 508 0036 FFF7FEFF 		bl	SetAnalogRoutingPumps
 312:.\Generated_Source\PSoC4/cyfitter_cfg.c **** }
 509              		.loc 1 312 0
 510 003a BD46     		mov	sp, r7
 511              		@ sp needed
 512 003c 80BD     		pop	{r7, pc}
 513              	.L20:
 514 003e C046     		.align	2
 515              	.L19:
 516 0040 00003040 		.word	1076887552
 517 0044 30003040 		.word	1076887600
 518 0048 80003040 		.word	1076887680
 519 004c 04400400 		.word	278532
 520 0050 30003140 		.word	1076953136
 521 0054 00003A40 		.word	1077542912
 522 0058 00033A40 		.word	1077543680
 523 005c 000E3F40 		.word	1077874176
 524 0060 03010080 		.word	-2147483389
 525              		.cfi_endproc
 526              	.LFE8:
 527              		.size	AnalogSetDefault, .-AnalogSetDefault
 528              		.section	.text.SetAnalogRoutingPumps,"ax",%progbits
 529              		.align	2
 530              		.global	SetAnalogRoutingPumps
 531              		.code	16
 532              		.thumb_func
 533              		.type	SetAnalogRoutingPumps, %function
 534              	SetAnalogRoutingPumps:
 535              	.LFB9:
 313:.\Generated_Source\PSoC4/cyfitter_cfg.c **** 
 314:.\Generated_Source\PSoC4/cyfitter_cfg.c **** 
ARM GAS  C:\Users\MANISH~1\AppData\Local\Temp\ccB4xhqf.s 			page 16


 315:.\Generated_Source\PSoC4/cyfitter_cfg.c **** /*******************************************************************************
 316:.\Generated_Source\PSoC4/cyfitter_cfg.c **** * Function Name: SetAnalogRoutingPumps
 317:.\Generated_Source\PSoC4/cyfitter_cfg.c **** ********************************************************************************
 318:.\Generated_Source\PSoC4/cyfitter_cfg.c **** *
 319:.\Generated_Source\PSoC4/cyfitter_cfg.c **** * Summary:
 320:.\Generated_Source\PSoC4/cyfitter_cfg.c **** * Enables or disables the analog pumps feeding analog routing switches.
 321:.\Generated_Source\PSoC4/cyfitter_cfg.c **** * Intended to be called at startup, based on the Vdda system configuration;
 322:.\Generated_Source\PSoC4/cyfitter_cfg.c **** * may be called during operation when the user informs us that the Vdda voltage crossed the pump th
 323:.\Generated_Source\PSoC4/cyfitter_cfg.c **** *
 324:.\Generated_Source\PSoC4/cyfitter_cfg.c **** * Parameters:
 325:.\Generated_Source\PSoC4/cyfitter_cfg.c **** *  enabled - 1 to enable the pumps, 0 to disable the pumps
 326:.\Generated_Source\PSoC4/cyfitter_cfg.c **** *
 327:.\Generated_Source\PSoC4/cyfitter_cfg.c **** * Return:
 328:.\Generated_Source\PSoC4/cyfitter_cfg.c **** *  void
 329:.\Generated_Source\PSoC4/cyfitter_cfg.c **** *
 330:.\Generated_Source\PSoC4/cyfitter_cfg.c **** *******************************************************************************/
 331:.\Generated_Source\PSoC4/cyfitter_cfg.c **** void SetAnalogRoutingPumps(uint8 enabled)
 332:.\Generated_Source\PSoC4/cyfitter_cfg.c **** {
 536              		.loc 1 332 0
 537              		.cfi_startproc
 538 0000 80B5     		push	{r7, lr}
 539              		.cfi_def_cfa_offset 8
 540              		.cfi_offset 7, -8
 541              		.cfi_offset 14, -4
 542 0002 84B0     		sub	sp, sp, #16
 543              		.cfi_def_cfa_offset 24
 544 0004 00AF     		add	r7, sp, #0
 545              		.cfi_def_cfa_register 7
 546 0006 021C     		mov	r2, r0
 547 0008 FB1D     		add	r3, r7, #7
 548 000a 1A70     		strb	r2, [r3]
 333:.\Generated_Source\PSoC4/cyfitter_cfg.c **** 	uint32 regValue = CY_GET_XTND_REG32((void *)(CYREG_SAR_PUMP_CTRL));
 549              		.loc 1 333 0
 550 000c 0B4B     		ldr	r3, .L24
 551 000e 1B68     		ldr	r3, [r3]
 552 0010 FB60     		str	r3, [r7, #12]
 334:.\Generated_Source\PSoC4/cyfitter_cfg.c **** 	if (enabled != 0u)
 553              		.loc 1 334 0
 554 0012 FB1D     		add	r3, r7, #7
 555 0014 1B78     		ldrb	r3, [r3]
 556 0016 002B     		cmp	r3, #0
 557 0018 05D0     		beq	.L22
 335:.\Generated_Source\PSoC4/cyfitter_cfg.c **** 	{
 336:.\Generated_Source\PSoC4/cyfitter_cfg.c **** 		regValue |= 0x80000000u;
 558              		.loc 1 336 0
 559 001a FB68     		ldr	r3, [r7, #12]
 560 001c 8022     		mov	r2, #128
 561 001e 1206     		lsl	r2, r2, #24
 562 0020 1343     		orr	r3, r2
 563 0022 FB60     		str	r3, [r7, #12]
 564 0024 03E0     		b	.L23
 565              	.L22:
 337:.\Generated_Source\PSoC4/cyfitter_cfg.c **** 	}
 338:.\Generated_Source\PSoC4/cyfitter_cfg.c **** 	else
 339:.\Generated_Source\PSoC4/cyfitter_cfg.c **** 	{
 340:.\Generated_Source\PSoC4/cyfitter_cfg.c **** 		regValue &= ~0x80000000u;
 566              		.loc 1 340 0
ARM GAS  C:\Users\MANISH~1\AppData\Local\Temp\ccB4xhqf.s 			page 17


 567 0026 FB68     		ldr	r3, [r7, #12]
 568 0028 5B00     		lsl	r3, r3, #1
 569 002a 5B08     		lsr	r3, r3, #1
 570 002c FB60     		str	r3, [r7, #12]
 571              	.L23:
 341:.\Generated_Source\PSoC4/cyfitter_cfg.c **** 	}
 342:.\Generated_Source\PSoC4/cyfitter_cfg.c **** 	CY_SET_XTND_REG32((void *)(CYREG_SAR_PUMP_CTRL), regValue);
 572              		.loc 1 342 0
 573 002e 034B     		ldr	r3, .L24
 574 0030 FA68     		ldr	r2, [r7, #12]
 575 0032 1A60     		str	r2, [r3]
 343:.\Generated_Source\PSoC4/cyfitter_cfg.c **** }
 576              		.loc 1 343 0
 577 0034 BD46     		mov	sp, r7
 578 0036 04B0     		add	sp, sp, #16
 579              		@ sp needed
 580 0038 80BD     		pop	{r7, pc}
 581              	.L25:
 582 003a C046     		.align	2
 583              	.L24:
 584 003c 80033A40 		.word	1077543808
 585              		.cfi_endproc
 586              	.LFE9:
 587              		.size	SetAnalogRoutingPumps, .-SetAnalogRoutingPumps
 588              		.section	.psocinit
 589              		.align	2
 590              		.global	cyfitter_cfg
 591              		.code	16
 592              		.thumb_func
 593              		.type	cyfitter_cfg, %function
 594              	cyfitter_cfg:
 595              	.LFB10:
 344:.\Generated_Source\PSoC4/cyfitter_cfg.c **** 
 345:.\Generated_Source\PSoC4/cyfitter_cfg.c **** #define CY_AMUX_UNUSED CYREG_CM0_ROM_DWT
 346:.\Generated_Source\PSoC4/cyfitter_cfg.c **** 
 347:.\Generated_Source\PSoC4/cyfitter_cfg.c **** 
 348:.\Generated_Source\PSoC4/cyfitter_cfg.c **** /*******************************************************************************
 349:.\Generated_Source\PSoC4/cyfitter_cfg.c **** * Function Name: cyfitter_cfg
 350:.\Generated_Source\PSoC4/cyfitter_cfg.c **** ********************************************************************************
 351:.\Generated_Source\PSoC4/cyfitter_cfg.c **** * Summary:
 352:.\Generated_Source\PSoC4/cyfitter_cfg.c **** *  This function is called by the start-up code for the selected device. It
 353:.\Generated_Source\PSoC4/cyfitter_cfg.c **** *  performs all of the necessary device configuration based on the design
 354:.\Generated_Source\PSoC4/cyfitter_cfg.c **** *  settings.  This includes settings from the Design Wide Resources (DWR) such
 355:.\Generated_Source\PSoC4/cyfitter_cfg.c **** *  as Clocks and Pins as well as any component configuration that is necessary.
 356:.\Generated_Source\PSoC4/cyfitter_cfg.c **** *
 357:.\Generated_Source\PSoC4/cyfitter_cfg.c **** * Parameters:  
 358:.\Generated_Source\PSoC4/cyfitter_cfg.c **** *   void
 359:.\Generated_Source\PSoC4/cyfitter_cfg.c **** *
 360:.\Generated_Source\PSoC4/cyfitter_cfg.c **** * Return:
 361:.\Generated_Source\PSoC4/cyfitter_cfg.c **** *   void
 362:.\Generated_Source\PSoC4/cyfitter_cfg.c **** *
 363:.\Generated_Source\PSoC4/cyfitter_cfg.c **** *******************************************************************************/
 364:.\Generated_Source\PSoC4/cyfitter_cfg.c **** CY_CFG_SECTION
 365:.\Generated_Source\PSoC4/cyfitter_cfg.c **** void cyfitter_cfg(void)
 366:.\Generated_Source\PSoC4/cyfitter_cfg.c **** {
 596              		.loc 1 366 0
 597              		.cfi_startproc
ARM GAS  C:\Users\MANISH~1\AppData\Local\Temp\ccB4xhqf.s 			page 18


 598 017c 80B5     		push	{r7, lr}
 599              		.cfi_def_cfa_offset 8
 600              		.cfi_offset 7, -8
 601              		.cfi_offset 14, -4
 602 017e 82B0     		sub	sp, sp, #8
 603              		.cfi_def_cfa_offset 16
 604 0180 00AF     		add	r7, sp, #0
 605              		.cfi_def_cfa_register 7
 367:.\Generated_Source\PSoC4/cyfitter_cfg.c **** 	/* Disable interrupts by default. Let user enable if/when they want. */
 368:.\Generated_Source\PSoC4/cyfitter_cfg.c **** 	CyGlobalIntDisable;
 606              		.loc 1 368 0
 607              	@ 368 ".\Generated_Source\PSoC4\cyfitter_cfg.c" 1
 608 0182 72B6     		CPSID   i
 609              	@ 0 "" 2
 369:.\Generated_Source\PSoC4/cyfitter_cfg.c **** 
 370:.\Generated_Source\PSoC4/cyfitter_cfg.c **** 	CY_SET_XTND_REG32((void CYFAR *)(CYREG_BLE_BLESS_LL_DSM_CTRL), 0x00000000u);
 610              		.loc 1 370 0
 611              		.code	16
 612 0184 414B     		ldr	r3, .L29
 613 0186 0022     		mov	r2, #0
 614 0188 1A60     		str	r2, [r3]
 615              	.LBB3:
 371:.\Generated_Source\PSoC4/cyfitter_cfg.c **** 
 372:.\Generated_Source\PSoC4/cyfitter_cfg.c **** 	{
 373:.\Generated_Source\PSoC4/cyfitter_cfg.c **** 		static const uint32 CYCODE cy_cfg_addr_table[] = {
 374:.\Generated_Source\PSoC4/cyfitter_cfg.c **** 			0x400F4202u, /* Base address: 0x400F4200 Count: 2 */
 375:.\Generated_Source\PSoC4/cyfitter_cfg.c **** 			0x400F4303u, /* Base address: 0x400F4300 Count: 3 */
 376:.\Generated_Source\PSoC4/cyfitter_cfg.c **** 			0x400F6002u, /* Base address: 0x400F6000 Count: 2 */
 377:.\Generated_Source\PSoC4/cyfitter_cfg.c **** 		};
 378:.\Generated_Source\PSoC4/cyfitter_cfg.c **** 
 379:.\Generated_Source\PSoC4/cyfitter_cfg.c **** 		static const cy_cfg_addrvalue_t CYCODE cy_cfg_data_table[] = {
 380:.\Generated_Source\PSoC4/cyfitter_cfg.c **** 			{0x0Cu, 0x10u},
 381:.\Generated_Source\PSoC4/cyfitter_cfg.c **** 			{0xC2u, 0x01u},
 382:.\Generated_Source\PSoC4/cyfitter_cfg.c **** 			{0x58u, 0x10u},
 383:.\Generated_Source\PSoC4/cyfitter_cfg.c **** 			{0x98u, 0x10u},
 384:.\Generated_Source\PSoC4/cyfitter_cfg.c **** 			{0xD4u, 0x01u},
 385:.\Generated_Source\PSoC4/cyfitter_cfg.c **** 			{0x02u, 0x01u},
 386:.\Generated_Source\PSoC4/cyfitter_cfg.c **** 			{0x11u, 0x01u},
 387:.\Generated_Source\PSoC4/cyfitter_cfg.c **** 		};
 388:.\Generated_Source\PSoC4/cyfitter_cfg.c **** 
 389:.\Generated_Source\PSoC4/cyfitter_cfg.c **** 
 390:.\Generated_Source\PSoC4/cyfitter_cfg.c **** 
 391:.\Generated_Source\PSoC4/cyfitter_cfg.c **** 		CYPACKED typedef struct {
 392:.\Generated_Source\PSoC4/cyfitter_cfg.c **** 			void CYFAR *address;
 393:.\Generated_Source\PSoC4/cyfitter_cfg.c **** 			uint16 size;
 394:.\Generated_Source\PSoC4/cyfitter_cfg.c **** 		} CYPACKED_ATTR cfg_memset_t;
 395:.\Generated_Source\PSoC4/cyfitter_cfg.c **** 
 396:.\Generated_Source\PSoC4/cyfitter_cfg.c **** 		static const cfg_memset_t CYCODE cfg_memset_list [] = {
 397:.\Generated_Source\PSoC4/cyfitter_cfg.c **** 			/* address, size */
 398:.\Generated_Source\PSoC4/cyfitter_cfg.c **** 			{(void CYFAR *)(CYDEV_UDB_P0_U0_BASE), 1024u},
 399:.\Generated_Source\PSoC4/cyfitter_cfg.c **** 			{(void CYFAR *)(CYDEV_UDB_DSI0_BASE), 1024u},
 400:.\Generated_Source\PSoC4/cyfitter_cfg.c **** 		};
 401:.\Generated_Source\PSoC4/cyfitter_cfg.c **** 
 402:.\Generated_Source\PSoC4/cyfitter_cfg.c **** 		uint8 CYDATA i;
 403:.\Generated_Source\PSoC4/cyfitter_cfg.c **** 
 404:.\Generated_Source\PSoC4/cyfitter_cfg.c **** 		/* Zero out critical memory blocks before beginning configuration */
 405:.\Generated_Source\PSoC4/cyfitter_cfg.c **** 		for (i = 0u; i < (sizeof(cfg_memset_list)/sizeof(cfg_memset_list[0])); i++)
ARM GAS  C:\Users\MANISH~1\AppData\Local\Temp\ccB4xhqf.s 			page 19


 616              		.loc 1 405 0
 617 018a FB1D     		add	r3, r7, #7
 618 018c 0022     		mov	r2, #0
 619 018e 1A70     		strb	r2, [r3]
 620 0190 23E0     		b	.L27
 621              	.L28:
 622              	.LBB4:
 406:.\Generated_Source\PSoC4/cyfitter_cfg.c **** 		{
 407:.\Generated_Source\PSoC4/cyfitter_cfg.c **** 			const cfg_memset_t CYCODE * CYDATA ms = &cfg_memset_list[i];
 623              		.loc 1 407 0 discriminator 2
 624 0192 FB1D     		add	r3, r7, #7
 625 0194 1A78     		ldrb	r2, [r3]
 626 0196 131C     		mov	r3, r2
 627 0198 5B00     		lsl	r3, r3, #1
 628 019a 9B18     		add	r3, r3, r2
 629 019c 5B00     		lsl	r3, r3, #1
 630 019e 3C4A     		ldr	r2, .L29+4
 631 01a0 9B18     		add	r3, r3, r2
 632 01a2 3B60     		str	r3, [r7]
 408:.\Generated_Source\PSoC4/cyfitter_cfg.c **** 			CYMEMZERO(ms->address, (size_t)(uint32)(ms->size));
 633              		.loc 1 408 0 discriminator 2
 634 01a4 3B68     		ldr	r3, [r7]
 635 01a6 1A78     		ldrb	r2, [r3]
 636 01a8 5978     		ldrb	r1, [r3, #1]
 637 01aa 0902     		lsl	r1, r1, #8
 638 01ac 0A43     		orr	r2, r1
 639 01ae 9978     		ldrb	r1, [r3, #2]
 640 01b0 0904     		lsl	r1, r1, #16
 641 01b2 0A43     		orr	r2, r1
 642 01b4 DB78     		ldrb	r3, [r3, #3]
 643 01b6 1B06     		lsl	r3, r3, #24
 644 01b8 1343     		orr	r3, r2
 645 01ba 1A1C     		mov	r2, r3
 646 01bc 3B68     		ldr	r3, [r7]
 647 01be 1979     		ldrb	r1, [r3, #4]
 648 01c0 5B79     		ldrb	r3, [r3, #5]
 649 01c2 1B02     		lsl	r3, r3, #8
 650 01c4 0B43     		orr	r3, r1
 651 01c6 9BB2     		uxth	r3, r3
 652 01c8 101C     		mov	r0, r2
 653 01ca 191C     		mov	r1, r3
 654 01cc FFF7FEFF 		bl	CYMEMZERO
 655              	.LBE4:
 405:.\Generated_Source\PSoC4/cyfitter_cfg.c **** 		for (i = 0u; i < (sizeof(cfg_memset_list)/sizeof(cfg_memset_list[0])); i++)
 656              		.loc 1 405 0 discriminator 2
 657 01d0 FB1D     		add	r3, r7, #7
 658 01d2 1A78     		ldrb	r2, [r3]
 659 01d4 FB1D     		add	r3, r7, #7
 660 01d6 0132     		add	r2, r2, #1
 661 01d8 1A70     		strb	r2, [r3]
 662              	.L27:
 405:.\Generated_Source\PSoC4/cyfitter_cfg.c **** 		for (i = 0u; i < (sizeof(cfg_memset_list)/sizeof(cfg_memset_list[0])); i++)
 663              		.loc 1 405 0 is_stmt 0 discriminator 1
 664 01da FB1D     		add	r3, r7, #7
 665 01dc 1B78     		ldrb	r3, [r3]
 666 01de 012B     		cmp	r3, #1
 667 01e0 D7D9     		bls	.L28
ARM GAS  C:\Users\MANISH~1\AppData\Local\Temp\ccB4xhqf.s 			page 20


 409:.\Generated_Source\PSoC4/cyfitter_cfg.c **** 		}
 410:.\Generated_Source\PSoC4/cyfitter_cfg.c **** 
 411:.\Generated_Source\PSoC4/cyfitter_cfg.c **** 		cfg_write_bytes32(cy_cfg_addr_table, cy_cfg_data_table);
 668              		.loc 1 411 0 is_stmt 1
 669 01e2 2C4A     		ldr	r2, .L29+8
 670 01e4 2C4B     		ldr	r3, .L29+12
 671 01e6 101C     		mov	r0, r2
 672 01e8 191C     		mov	r1, r3
 673 01ea FFF7FEFF 		bl	cfg_write_bytes32
 412:.\Generated_Source\PSoC4/cyfitter_cfg.c **** 
 413:.\Generated_Source\PSoC4/cyfitter_cfg.c **** 		/* HSIOM Starting address: CYDEV_HSIOM_BASE */
 414:.\Generated_Source\PSoC4/cyfitter_cfg.c **** 		CY_SET_XTND_REG32((void CYFAR *)(CYREG_HSIOM_PORT_SEL3), 0x00000003u);
 674              		.loc 1 414 0
 675 01ee 2B4B     		ldr	r3, .L29+16
 676 01f0 0322     		mov	r2, #3
 677 01f2 1A60     		str	r2, [r3]
 415:.\Generated_Source\PSoC4/cyfitter_cfg.c **** 
 416:.\Generated_Source\PSoC4/cyfitter_cfg.c **** 		/* FORCED_HSIOM Starting address: CYDEV_HSIOM_PORT_SEL0 */
 417:.\Generated_Source\PSoC4/cyfitter_cfg.c **** 		CY_SET_XTND_REG32((void CYFAR *)(CYREG_HSIOM_PORT_SEL0), 0x00000000u);
 678              		.loc 1 417 0
 679 01f4 2A4B     		ldr	r3, .L29+20
 680 01f6 0022     		mov	r2, #0
 681 01f8 1A60     		str	r2, [r3]
 418:.\Generated_Source\PSoC4/cyfitter_cfg.c **** 
 419:.\Generated_Source\PSoC4/cyfitter_cfg.c **** 		/* IOPINS0_0 Starting address: CYDEV_GPIO_PRT0_PC */
 420:.\Generated_Source\PSoC4/cyfitter_cfg.c **** 		CY_SET_XTND_REG32((void CYFAR *)(CYREG_GPIO_PRT0_PC), 0x00000000u);
 682              		.loc 1 420 0
 683 01fa 2A4B     		ldr	r3, .L29+24
 684 01fc 0022     		mov	r2, #0
 685 01fe 1A60     		str	r2, [r3]
 421:.\Generated_Source\PSoC4/cyfitter_cfg.c **** 
 422:.\Generated_Source\PSoC4/cyfitter_cfg.c **** 		/* IOPINS0_2 Starting address: CYDEV_GPIO_PRT2_DR */
 423:.\Generated_Source\PSoC4/cyfitter_cfg.c **** 		CY_SET_XTND_REG32((void CYFAR *)(CYREG_GPIO_PRT2_DR), 0x00000081u);
 686              		.loc 1 423 0
 687 0200 294B     		ldr	r3, .L29+28
 688 0202 8122     		mov	r2, #129
 689 0204 1A60     		str	r2, [r3]
 424:.\Generated_Source\PSoC4/cyfitter_cfg.c **** 		CY_SET_XTND_REG32((void CYFAR *)(CYREG_GPIO_PRT2_PC), 0x00400000u);
 690              		.loc 1 424 0
 691 0206 294B     		ldr	r3, .L29+32
 692 0208 8022     		mov	r2, #128
 693 020a D203     		lsl	r2, r2, #15
 694 020c 1A60     		str	r2, [r3]
 425:.\Generated_Source\PSoC4/cyfitter_cfg.c **** 		CY_SET_XTND_REG32((void CYFAR *)(CYREG_GPIO_PRT2_INTR_CFG), 0x00008000u);
 695              		.loc 1 425 0
 696 020e 284B     		ldr	r3, .L29+36
 697 0210 8022     		mov	r2, #128
 698 0212 1202     		lsl	r2, r2, #8
 699 0214 1A60     		str	r2, [r3]
 426:.\Generated_Source\PSoC4/cyfitter_cfg.c **** 		CY_SET_XTND_REG32((void CYFAR *)(CYREG_GPIO_PRT2_PC2), 0x00000001u);
 700              		.loc 1 426 0
 701 0216 274B     		ldr	r3, .L29+40
 702 0218 0122     		mov	r2, #1
 703 021a 1A60     		str	r2, [r3]
 427:.\Generated_Source\PSoC4/cyfitter_cfg.c **** 
 428:.\Generated_Source\PSoC4/cyfitter_cfg.c **** 		/* IOPINS0_3 Starting address: CYDEV_GPIO_PRT3_DR */
 429:.\Generated_Source\PSoC4/cyfitter_cfg.c **** 		CY_SET_XTND_REG32((void CYFAR *)(CYREG_GPIO_PRT3_DR), 0x000000C1u);
ARM GAS  C:\Users\MANISH~1\AppData\Local\Temp\ccB4xhqf.s 			page 21


 704              		.loc 1 429 0
 705 021c 264B     		ldr	r3, .L29+44
 706 021e C122     		mov	r2, #193
 707 0220 1A60     		str	r2, [r3]
 430:.\Generated_Source\PSoC4/cyfitter_cfg.c **** 		CY_SET_XTND_REG32((void CYFAR *)(CYREG_GPIO_PRT3_PC), 0x00D80006u);
 708              		.loc 1 430 0
 709 0222 264B     		ldr	r3, .L29+48
 710 0224 264A     		ldr	r2, .L29+52
 711 0226 1A60     		str	r2, [r3]
 431:.\Generated_Source\PSoC4/cyfitter_cfg.c **** 
 432:.\Generated_Source\PSoC4/cyfitter_cfg.c **** 		/* UDB_PA_2 Starting address: CYDEV_UDB_PA2_BASE */
 433:.\Generated_Source\PSoC4/cyfitter_cfg.c **** 		CY_SET_XTND_REG32((void CYFAR *)(CYDEV_UDB_PA2_BASE), 0x00990004u);
 712              		.loc 1 433 0
 713 0228 264B     		ldr	r3, .L29+56
 714 022a 274A     		ldr	r2, .L29+60
 715 022c 1A60     		str	r2, [r3]
 434:.\Generated_Source\PSoC4/cyfitter_cfg.c **** 		CY_SET_XTND_REG32((void CYFAR *)(CYREG_UDB_PA2_CFG4), 0x80000000u);
 716              		.loc 1 434 0
 717 022e 274B     		ldr	r3, .L29+64
 718 0230 8022     		mov	r2, #128
 719 0232 1206     		lsl	r2, r2, #24
 720 0234 1A60     		str	r2, [r3]
 435:.\Generated_Source\PSoC4/cyfitter_cfg.c **** 
 436:.\Generated_Source\PSoC4/cyfitter_cfg.c **** 		/* UDB_PA_3 Starting address: CYDEV_UDB_PA3_BASE */
 437:.\Generated_Source\PSoC4/cyfitter_cfg.c **** 		CY_SET_XTND_REG32((void CYFAR *)(CYDEV_UDB_PA3_BASE), 0x00990000u);
 721              		.loc 1 437 0
 722 0236 264B     		ldr	r3, .L29+68
 723 0238 9922     		mov	r2, #153
 724 023a 1204     		lsl	r2, r2, #16
 725 023c 1A60     		str	r2, [r3]
 438:.\Generated_Source\PSoC4/cyfitter_cfg.c **** 		CY_SET_XTND_REG32((void CYFAR *)(CYREG_UDB_PA3_CFG8), 0x00020000u);
 726              		.loc 1 438 0
 727 023e 254B     		ldr	r3, .L29+72
 728 0240 8022     		mov	r2, #128
 729 0242 9202     		lsl	r2, r2, #10
 730 0244 1A60     		str	r2, [r3]
 439:.\Generated_Source\PSoC4/cyfitter_cfg.c **** 
 440:.\Generated_Source\PSoC4/cyfitter_cfg.c **** 		/* Enable digital routing */
 441:.\Generated_Source\PSoC4/cyfitter_cfg.c **** 		CY_SET_XTND_REG8((void *)CYREG_UDB_UDBIF_BANK_CTL, CY_GET_XTND_REG8((void *)CYREG_UDB_UDBIF_BANK_
 731              		.loc 1 441 0
 732 0246 244B     		ldr	r3, .L29+76
 733 0248 234A     		ldr	r2, .L29+76
 734 024a 1278     		ldrb	r2, [r2]
 735 024c D2B2     		uxtb	r2, r2
 736 024e 0221     		mov	r1, #2
 737 0250 0A43     		orr	r2, r1
 738 0252 D2B2     		uxtb	r2, r2
 739 0254 1A70     		strb	r2, [r3]
 442:.\Generated_Source\PSoC4/cyfitter_cfg.c **** 
 443:.\Generated_Source\PSoC4/cyfitter_cfg.c **** 		/* Enable UDB array */
 444:.\Generated_Source\PSoC4/cyfitter_cfg.c **** 		CY_SET_XTND_REG8((void *)CYREG_UDB_UDBIF_WAIT_CFG, (uint8)((CY_GET_XTND_REG8((void *)CYREG_UDB_UD
 740              		.loc 1 444 0
 741 0256 214B     		ldr	r3, .L29+80
 742 0258 204A     		ldr	r2, .L29+80
 743 025a 1278     		ldrb	r2, [r2]
 744 025c D2B2     		uxtb	r2, r2
 745 025e 3C21     		mov	r1, #60
ARM GAS  C:\Users\MANISH~1\AppData\Local\Temp\ccB4xhqf.s 			page 22


 746 0260 8A43     		bic	r2, r1
 747 0262 D2B2     		uxtb	r2, r2
 748 0264 1421     		mov	r1, #20
 749 0266 0A43     		orr	r2, r1
 750 0268 D2B2     		uxtb	r2, r2
 751 026a 1A70     		strb	r2, [r3]
 445:.\Generated_Source\PSoC4/cyfitter_cfg.c **** 		CY_SET_XTND_REG8((void *)CYREG_UDB_UDBIF_BANK_CTL, (uint8)(CY_GET_XTND_REG8((void *)CYREG_UDB_UDB
 752              		.loc 1 445 0
 753 026c 1A4B     		ldr	r3, .L29+76
 754 026e 1A4A     		ldr	r2, .L29+76
 755 0270 1278     		ldrb	r2, [r2]
 756 0272 D2B2     		uxtb	r2, r2
 757 0274 1621     		mov	r1, #22
 758 0276 0A43     		orr	r2, r1
 759 0278 D2B2     		uxtb	r2, r2
 760 027a 1A70     		strb	r2, [r3]
 761              	.LBE3:
 446:.\Generated_Source\PSoC4/cyfitter_cfg.c **** 	}
 447:.\Generated_Source\PSoC4/cyfitter_cfg.c **** 
 448:.\Generated_Source\PSoC4/cyfitter_cfg.c **** 	/* Setup clocks based on selections from Clock DWR */
 449:.\Generated_Source\PSoC4/cyfitter_cfg.c **** 	ClockSetup();
 762              		.loc 1 449 0
 763 027c FFF712FF 		bl	ClockSetup
 450:.\Generated_Source\PSoC4/cyfitter_cfg.c **** 
 451:.\Generated_Source\PSoC4/cyfitter_cfg.c **** 	/* Perform basic analog initialization to defaults */
 452:.\Generated_Source\PSoC4/cyfitter_cfg.c **** 	AnalogSetDefault();
 764              		.loc 1 452 0
 765 0280 FFF7FEFF 		bl	AnalogSetDefault
 453:.\Generated_Source\PSoC4/cyfitter_cfg.c **** 
 454:.\Generated_Source\PSoC4/cyfitter_cfg.c **** }
 766              		.loc 1 454 0
 767 0284 BD46     		mov	sp, r7
 768 0286 02B0     		add	sp, sp, #8
 769              		@ sp needed
 770 0288 80BD     		pop	{r7, pc}
 771              	.L30:
 772 028a C046     		.align	2
 773              	.L29:
 774 028c 6CF02E40 		.word	1076818028
 775 0290 04000000 		.word	cfg_memset_list.4771
 776 0294 10000000 		.word	cy_cfg_addr_table.4765
 777 0298 1C000000 		.word	cy_cfg_data_table.4766
 778 029c 00030240 		.word	1073873664
 779 02a0 00000240 		.word	1073872896
 780 02a4 08000440 		.word	1074003976
 781 02a8 00020440 		.word	1074004480
 782 02ac 08020440 		.word	1074004488
 783 02b0 0C020440 		.word	1074004492
 784 02b4 18020440 		.word	1074004504
 785 02b8 00030440 		.word	1074004736
 786 02bc 08030440 		.word	1074004744
 787 02c0 0600D800 		.word	14155782
 788 02c4 20500F40 		.word	1074745376
 789 02c8 04009900 		.word	10027012
 790 02cc 24500F40 		.word	1074745380
 791 02d0 30500F40 		.word	1074745392
 792 02d4 38500F40 		.word	1074745400
ARM GAS  C:\Users\MANISH~1\AppData\Local\Temp\ccB4xhqf.s 			page 23


 793 02d8 00700F40 		.word	1074753536
 794 02dc 01700F40 		.word	1074753537
 795              		.cfi_endproc
 796              	.LFE10:
 797              		.size	cyfitter_cfg, .-cyfitter_cfg
 798              		.data
 799              		.align	2
 800              		.type	imo_trim_table.4740, %object
 801              		.size	imo_trim_table.4740, 4
 802              	imo_trim_table.4740:
 803 0000 C0F1FF0F 		.word	268431808
 804              		.section	.rodata
 805              		.align	2
 806              		.type	IMO_TRIM_FREQ_TABLE_ENTRIES.4741, %object
 807              		.size	IMO_TRIM_FREQ_TABLE_ENTRIES.4741, 4
 808              	IMO_TRIM_FREQ_TABLE_ENTRIES.4741:
 809 0000 04000000 		.word	4
 810              		.align	2
 811              		.type	cfg_memset_list.4771, %object
 812              		.size	cfg_memset_list.4771, 12
 813              	cfg_memset_list.4771:
 814 0004 00300F40 		.word	1074737152
 815 0008 0004     		.short	1024
 816 000a 00400F40 		.4byte	1074741248
 817 000e 0004     		.short	1024
 818              		.align	2
 819              		.type	cy_cfg_addr_table.4765, %object
 820              		.size	cy_cfg_addr_table.4765, 12
 821              	cy_cfg_addr_table.4765:
 822 0010 02420F40 		.word	1074741762
 823 0014 03430F40 		.word	1074742019
 824 0018 02600F40 		.word	1074749442
 825              		.align	2
 826              		.type	cy_cfg_data_table.4766, %object
 827              		.size	cy_cfg_data_table.4766, 14
 828              	cy_cfg_data_table.4766:
 829 001c 0C       		.byte	12
 830 001d 10       		.byte	16
 831 001e C2       		.byte	-62
 832 001f 01       		.byte	1
 833 0020 58       		.byte	88
 834 0021 10       		.byte	16
 835 0022 98       		.byte	-104
 836 0023 10       		.byte	16
 837 0024 D4       		.byte	-44
 838 0025 01       		.byte	1
 839 0026 02       		.byte	2
 840 0027 01       		.byte	1
 841 0028 11       		.byte	17
 842 0029 01       		.byte	1
 843 002a 0000     		.text
 844              	.Letext0:
 845              		.file 2 "c:\\program files (x86)\\cypress\\psoc creator\\3.1\\psoc creator\\import\\gnu_cs\\arm\\4
 846              		.file 3 ".\\Generated_Source\\PSoC4/cytypes.h"