ARM GAS  C:\Users\MANISH~1\AppData\Local\Temp\ccB4xhqf.s 			page 1


   1              		.cpu cortex-m0
   2              		.fpu softvfp
   3              		.eabi_attribute 20, 1
   4              		.eabi_attribute 21, 1
   5              		.eabi_attribute 23, 3
   6              		.eabi_attribute 24, 1
   7              		.eabi_attribute 25, 1
   8              		.eabi_attribute 26, 1
   9              		.eabi_attribute 30, 6
  10              		.eabi_attribute 34, 0
  11              		.eabi_attribute 18, 4
  12              		.code	16
  13              		.file	"cyfitter_cfg.c"
  14              		.text
  15              	.Ltext0:
  16              		.cfi_sections	.debug_frame
  17              		.section	.text.CYMEMZERO,"ax",%progbits
  18              		.align	2
  19              		.code	16
  20              		.thumb_func
  21              		.type	CYMEMZERO, %function
  22              	CYMEMZERO:
  23              	.LFB2:
  24              		.file 1 ".\\Generated_Source\\PSoC4\\cyfitter_cfg.c"
   1:.\Generated_Source\PSoC4/cyfitter_cfg.c **** /*******************************************************************************
   2:.\Generated_Source\PSoC4/cyfitter_cfg.c **** * FILENAME: cyfitter_cfg.c
   3:.\Generated_Source\PSoC4/cyfitter_cfg.c **** * PSoC Creator  3.1 SP3
   4:.\Generated_Source\PSoC4/cyfitter_cfg.c **** *
   5:.\Generated_Source\PSoC4/cyfitter_cfg.c **** * Description:
   6:.\Generated_Source\PSoC4/cyfitter_cfg.c **** * This file is automatically generated by PSoC Creator with device 
   7:.\Generated_Source\PSoC4/cyfitter_cfg.c **** * initialization code.  Except for the user defined sections in
   8:.\Generated_Source\PSoC4/cyfitter_cfg.c **** * CyClockStartupError(), this file should not be modified.
   9:.\Generated_Source\PSoC4/cyfitter_cfg.c **** *
  10:.\Generated_Source\PSoC4/cyfitter_cfg.c **** ********************************************************************************
  11:.\Generated_Source\PSoC4/cyfitter_cfg.c **** * Copyright 2013, Cypress Semiconductor Corporation.  All rights reserved.
  12:.\Generated_Source\PSoC4/cyfitter_cfg.c **** * You may use this file only in accordance with the license, terms, conditions, 
  13:.\Generated_Source\PSoC4/cyfitter_cfg.c **** * disclaimers, and limitations in the end user license agreement accompanying 
  14:.\Generated_Source\PSoC4/cyfitter_cfg.c **** * the software package with which this file was provided.
  15:.\Generated_Source\PSoC4/cyfitter_cfg.c **** ********************************************************************************/
  16:.\Generated_Source\PSoC4/cyfitter_cfg.c **** 
  17:.\Generated_Source\PSoC4/cyfitter_cfg.c **** #include <string.h>
  18:.\Generated_Source\PSoC4/cyfitter_cfg.c **** #include <cytypes.h>
  19:.\Generated_Source\PSoC4/cyfitter_cfg.c **** #include <cydevice_trm.h>
  20:.\Generated_Source\PSoC4/cyfitter_cfg.c **** #include <cyfitter.h>
  21:.\Generated_Source\PSoC4/cyfitter_cfg.c **** #include <CyLib.h>
  22:.\Generated_Source\PSoC4/cyfitter_cfg.c **** #include <cyfitter_cfg.h>
  23:.\Generated_Source\PSoC4/cyfitter_cfg.c **** 
  24:.\Generated_Source\PSoC4/cyfitter_cfg.c **** 
  25:.\Generated_Source\PSoC4/cyfitter_cfg.c **** #if defined(__GNUC__) || defined(__ARMCC_VERSION)
  26:.\Generated_Source\PSoC4/cyfitter_cfg.c ****     #define CYPACKED 
  27:.\Generated_Source\PSoC4/cyfitter_cfg.c ****     #define CYPACKED_ATTR __attribute__ ((packed))
  28:.\Generated_Source\PSoC4/cyfitter_cfg.c ****     #define CYALIGNED __attribute__ ((aligned))
  29:.\Generated_Source\PSoC4/cyfitter_cfg.c ****     #define CY_CFG_UNUSED __attribute__ ((unused))
  30:.\Generated_Source\PSoC4/cyfitter_cfg.c ****     #define CY_CFG_SECTION __attribute__ ((section(".psocinit")))
  31:.\Generated_Source\PSoC4/cyfitter_cfg.c ****     
  32:.\Generated_Source\PSoC4/cyfitter_cfg.c ****     #if defined(__ARMCC_VERSION)
  33:.\Generated_Source\PSoC4/cyfitter_cfg.c ****         #define CY_CFG_MEMORY_BARRIER() __memory_changed()
ARM GAS  C:\Users\MANISH~1\AppData\Local\Temp\ccB4xhqf.s 			page 2


  34:.\Generated_Source\PSoC4/cyfitter_cfg.c ****     #else
  35:.\Generated_Source\PSoC4/cyfitter_cfg.c ****         #define CY_CFG_MEMORY_BARRIER() __sync_synchronize()
  36:.\Generated_Source\PSoC4/cyfitter_cfg.c ****     #endif
  37:.\Generated_Source\PSoC4/cyfitter_cfg.c ****     
  38:.\Generated_Source\PSoC4/cyfitter_cfg.c **** #elif defined(__ICCARM__)
  39:.\Generated_Source\PSoC4/cyfitter_cfg.c ****     #include <intrinsics.h>
  40:.\Generated_Source\PSoC4/cyfitter_cfg.c **** 
  41:.\Generated_Source\PSoC4/cyfitter_cfg.c ****     #define CYPACKED __packed
  42:.\Generated_Source\PSoC4/cyfitter_cfg.c ****     #define CYPACKED_ATTR 
  43:.\Generated_Source\PSoC4/cyfitter_cfg.c ****     #define CYALIGNED _Pragma("data_alignment=4")
  44:.\Generated_Source\PSoC4/cyfitter_cfg.c ****     #define CY_CFG_UNUSED _Pragma("diag_suppress=Pe177")
  45:.\Generated_Source\PSoC4/cyfitter_cfg.c ****     #define CY_CFG_SECTION _Pragma("location=\".psocinit\"")
  46:.\Generated_Source\PSoC4/cyfitter_cfg.c ****     
  47:.\Generated_Source\PSoC4/cyfitter_cfg.c ****     #define CY_CFG_MEMORY_BARRIER() __DMB()
  48:.\Generated_Source\PSoC4/cyfitter_cfg.c ****     
  49:.\Generated_Source\PSoC4/cyfitter_cfg.c **** #else
  50:.\Generated_Source\PSoC4/cyfitter_cfg.c ****     #error Unsupported toolchain
  51:.\Generated_Source\PSoC4/cyfitter_cfg.c **** #endif
  52:.\Generated_Source\PSoC4/cyfitter_cfg.c **** 
  53:.\Generated_Source\PSoC4/cyfitter_cfg.c **** 
  54:.\Generated_Source\PSoC4/cyfitter_cfg.c **** CY_CFG_UNUSED
  55:.\Generated_Source\PSoC4/cyfitter_cfg.c **** static void CYMEMZERO(void *s, size_t n);
  56:.\Generated_Source\PSoC4/cyfitter_cfg.c **** CY_CFG_UNUSED
  57:.\Generated_Source\PSoC4/cyfitter_cfg.c **** static void CYMEMZERO(void *s, size_t n)
  58:.\Generated_Source\PSoC4/cyfitter_cfg.c **** {
  25              		.loc 1 58 0
  26              		.cfi_startproc
  27 0000 80B5     		push	{r7, lr}
  28              		.cfi_def_cfa_offset 8
  29              		.cfi_offset 7, -8
  30              		.cfi_offset 14, -4
  31 0002 82B0     		sub	sp, sp, #8
  32              		.cfi_def_cfa_offset 16
  33 0004 00AF     		add	r7, sp, #0
  34              		.cfi_def_cfa_register 7
  35 0006 7860     		str	r0, [r7, #4]
  36 0008 3960     		str	r1, [r7]
  59:.\Generated_Source\PSoC4/cyfitter_cfg.c **** 	(void)memset(s, 0, n);
  37              		.loc 1 59 0
  38 000a 7A68     		ldr	r2, [r7, #4]
  39 000c 3B68     		ldr	r3, [r7]
  40 000e 101C     		mov	r0, r2
  41 0010 0021     		mov	r1, #0
  42 0012 1A1C     		mov	r2, r3
  43 0014 FFF7FEFF 		bl	memset
  60:.\Generated_Source\PSoC4/cyfitter_cfg.c **** }
  44              		.loc 1 60 0
  45 0018 BD46     		mov	sp, r7
  46 001a 02B0     		add	sp, sp, #8
  47              		@ sp needed
  48 001c 80BD     		pop	{r7, pc}
  49              		.cfi_endproc
  50              	.LFE2:
  51              		.size	CYMEMZERO, .-CYMEMZERO
  52 001e C046     		.section	.text.CYCONFIGCPY,"ax",%progbits
  53              		.align	2
  54              		.code	16
ARM GAS  C:\Users\MANISH~1\AppData\Local\Temp\ccB4xhqf.s 			page 3


  55              		.thumb_func
  56              		.type	CYCONFIGCPY, %function
  57              	CYCONFIGCPY:
  58              	.LFB3:
  61:.\Generated_Source\PSoC4/cyfitter_cfg.c **** CY_CFG_UNUSED
  62:.\Generated_Source\PSoC4/cyfitter_cfg.c **** static void CYCONFIGCPY(void *dest, const void *src, size_t n);
  63:.\Generated_Source\PSoC4/cyfitter_cfg.c **** CY_CFG_UNUSED
  64:.\Generated_Source\PSoC4/cyfitter_cfg.c **** static void CYCONFIGCPY(void *dest, const void *src, size_t n)
  65:.\Generated_Source\PSoC4/cyfitter_cfg.c **** {
  59              		.loc 1 65 0
  60              		.cfi_startproc
  61 0000 80B5     		push	{r7, lr}
  62              		.cfi_def_cfa_offset 8
  63              		.cfi_offset 7, -8
  64              		.cfi_offset 14, -4
  65 0002 84B0     		sub	sp, sp, #16
  66              		.cfi_def_cfa_offset 24
  67 0004 00AF     		add	r7, sp, #0
  68              		.cfi_def_cfa_register 7
  69 0006 F860     		str	r0, [r7, #12]
  70 0008 B960     		str	r1, [r7, #8]
  71 000a 7A60     		str	r2, [r7, #4]
  66:.\Generated_Source\PSoC4/cyfitter_cfg.c **** 	(void)memcpy(dest, src, n);
  72              		.loc 1 66 0
  73 000c F968     		ldr	r1, [r7, #12]
  74 000e BA68     		ldr	r2, [r7, #8]
  75 0010 7B68     		ldr	r3, [r7, #4]
  76 0012 081C     		mov	r0, r1
  77 0014 111C     		mov	r1, r2
  78 0016 1A1C     		mov	r2, r3
  79 0018 FFF7FEFF 		bl	memcpy
  67:.\Generated_Source\PSoC4/cyfitter_cfg.c **** }
  80              		.loc 1 67 0
  81 001c BD46     		mov	sp, r7
  82 001e 04B0     		add	sp, sp, #16
  83              		@ sp needed
  84 0020 80BD     		pop	{r7, pc}
  85              		.cfi_endproc
  86              	.LFE3:
  87              		.size	CYCONFIGCPY, .-CYCONFIGCPY
  88 0022 C046     		.section	.text.CYCONFIGCPYCODE,"ax",%progbits
  89              		.align	2
  90              		.code	16
  91              		.thumb_func
  92              		.type	CYCONFIGCPYCODE, %function
  93              	CYCONFIGCPYCODE:
  94              	.LFB4:
  68:.\Generated_Source\PSoC4/cyfitter_cfg.c **** CY_CFG_UNUSED
  69:.\Generated_Source\PSoC4/cyfitter_cfg.c **** static void CYCONFIGCPYCODE(void *dest, const void *src, size_t n);
  70:.\Generated_Source\PSoC4/cyfitter_cfg.c **** CY_CFG_UNUSED
  71:.\Generated_Source\PSoC4/cyfitter_cfg.c **** static void CYCONFIGCPYCODE(void *dest, const void *src, size_t n)
  72:.\Generated_Source\PSoC4/cyfitter_cfg.c **** {
  95              		.loc 1 72 0
  96              		.cfi_startproc
  97 0000 80B5     		push	{r7, lr}
  98              		.cfi_def_cfa_offset 8
  99              		.cfi_offset 7, -8
ARM GAS  C:\Users\MANISH~1\AppData\Local\Temp\ccB4xhqf.s 			page 4


 100              		.cfi_offset 14, -4
 101 0002 84B0     		sub	sp, sp, #16
 102              		.cfi_def_cfa_offset 24
 103 0004 00AF     		add	r7, sp, #0
 104              		.cfi_def_cfa_register 7
 105 0006 F860     		str	r0, [r7, #12]
 106 0008 B960     		str	r1, [r7, #8]
 107 000a 7A60     		str	r2, [r7, #4]
  73:.\Generated_Source\PSoC4/cyfitter_cfg.c **** 	(void)memcpy(dest, src, n);
 108              		.loc 1 73 0
 109 000c F968     		ldr	r1, [r7, #12]
 110 000e BA68     		ldr	r2, [r7, #8]
 111 0010 7B68     		ldr	r3, [r7, #4]
 112 0012 081C     		mov	r0, r1
 113 0014 111C     		mov	r1, r2
 114 0016 1A1C     		mov	r2, r3
 115 0018 FFF7FEFF 		bl	memcpy
  74:.\Generated_Source\PSoC4/cyfitter_cfg.c **** }
 116              		.loc 1 74 0
 117 001c BD46     		mov	sp, r7
 118 001e 04B0     		add	sp, sp, #16
 119              		@ sp needed
 120 0020 80BD     		pop	{r7, pc}
 121              		.cfi_endproc
 122              	.LFE4:
 123              		.size	CYCONFIGCPYCODE, .-CYCONFIGCPYCODE
 124 0022 C046     		.section	.text.cfg_write_bytes32,"ax",%progbits
 125              		.align	2
 126              		.code	16
 127              		.thumb_func
 128              		.type	cfg_write_bytes32, %function
 129              	cfg_write_bytes32:
 130              	.LFB5:
  75:.\Generated_Source\PSoC4/cyfitter_cfg.c **** 
  76:.\Generated_Source\PSoC4/cyfitter_cfg.c **** 
  77:.\Generated_Source\PSoC4/cyfitter_cfg.c **** 
  78:.\Generated_Source\PSoC4/cyfitter_cfg.c **** /* Clock startup error codes                                                   */
  79:.\Generated_Source\PSoC4/cyfitter_cfg.c **** #define CYCLOCKSTART_NO_ERROR    0u
  80:.\Generated_Source\PSoC4/cyfitter_cfg.c **** #define CYCLOCKSTART_XTAL_ERROR  1u
  81:.\Generated_Source\PSoC4/cyfitter_cfg.c **** #define CYCLOCKSTART_32KHZ_ERROR 2u
  82:.\Generated_Source\PSoC4/cyfitter_cfg.c **** #define CYCLOCKSTART_PLL_ERROR   3u
  83:.\Generated_Source\PSoC4/cyfitter_cfg.c **** 
  84:.\Generated_Source\PSoC4/cyfitter_cfg.c **** #ifdef CY_NEED_CYCLOCKSTARTUPERROR
  85:.\Generated_Source\PSoC4/cyfitter_cfg.c **** /*******************************************************************************
  86:.\Generated_Source\PSoC4/cyfitter_cfg.c **** * Function Name: CyClockStartupError
  87:.\Generated_Source\PSoC4/cyfitter_cfg.c **** ********************************************************************************
  88:.\Generated_Source\PSoC4/cyfitter_cfg.c **** * Summary:
  89:.\Generated_Source\PSoC4/cyfitter_cfg.c **** *  If an error is encountered during clock configuration (crystal startup error,
  90:.\Generated_Source\PSoC4/cyfitter_cfg.c **** *  PLL lock error, etc.), the system will end up here.  Unless reimplemented by
  91:.\Generated_Source\PSoC4/cyfitter_cfg.c **** *  the customer, this function will stop in an infinite loop.
  92:.\Generated_Source\PSoC4/cyfitter_cfg.c **** *
  93:.\Generated_Source\PSoC4/cyfitter_cfg.c **** * Parameters:
  94:.\Generated_Source\PSoC4/cyfitter_cfg.c **** *   void
  95:.\Generated_Source\PSoC4/cyfitter_cfg.c **** *
  96:.\Generated_Source\PSoC4/cyfitter_cfg.c **** * Return:
  97:.\Generated_Source\PSoC4/cyfitter_cfg.c **** *   void
  98:.\Generated_Source\PSoC4/cyfitter_cfg.c **** *
ARM GAS  C:\Users\MANISH~1\AppData\Local\Temp\ccB4xhqf.s 			page 5


  99:.\Generated_Source\PSoC4/cyfitter_cfg.c **** *******************************************************************************/
 100:.\Generated_Source\PSoC4/cyfitter_cfg.c **** CY_CFG_UNUSED
 101:.\Generated_Source\PSoC4/cyfitter_cfg.c **** static void CyClockStartupError(uint8 errorCode);
 102:.\Generated_Source\PSoC4/cyfitter_cfg.c **** CY_CFG_UNUSED
 103:.\Generated_Source\PSoC4/cyfitter_cfg.c **** static void CyClockStartupError(uint8 errorCode)
 104:.\Generated_Source\PSoC4/cyfitter_cfg.c **** {
 105:.\Generated_Source\PSoC4/cyfitter_cfg.c ****     /* To remove the compiler warning if errorCode not used.                */
 106:.\Generated_Source\PSoC4/cyfitter_cfg.c ****     errorCode = errorCode;
 107:.\Generated_Source\PSoC4/cyfitter_cfg.c **** 
 108:.\Generated_Source\PSoC4/cyfitter_cfg.c ****     /* `#START CyClockStartupError` */
 109:.\Generated_Source\PSoC4/cyfitter_cfg.c **** 
 110:.\Generated_Source\PSoC4/cyfitter_cfg.c ****     /* If we have a clock startup error (bad MHz crystal, PLL lock, etc.),  */
 111:.\Generated_Source\PSoC4/cyfitter_cfg.c ****     /* we will end up here to allow the customer to implement something to  */
 112:.\Generated_Source\PSoC4/cyfitter_cfg.c ****     /* deal with the clock condition.                                       */
 113:.\Generated_Source\PSoC4/cyfitter_cfg.c **** 
 114:.\Generated_Source\PSoC4/cyfitter_cfg.c ****     /* `#END` */
 115:.\Generated_Source\PSoC4/cyfitter_cfg.c **** 
 116:.\Generated_Source\PSoC4/cyfitter_cfg.c ****     /* If nothing else, stop here since the clocks have not started         */
 117:.\Generated_Source\PSoC4/cyfitter_cfg.c ****     /* correctly.                                                           */
 118:.\Generated_Source\PSoC4/cyfitter_cfg.c ****     while(1) {}
 119:.\Generated_Source\PSoC4/cyfitter_cfg.c **** }
 120:.\Generated_Source\PSoC4/cyfitter_cfg.c **** #endif
 121:.\Generated_Source\PSoC4/cyfitter_cfg.c **** 
 122:.\Generated_Source\PSoC4/cyfitter_cfg.c **** #define CY_CFG_BASE_ADDR_COUNT 3u
 123:.\Generated_Source\PSoC4/cyfitter_cfg.c **** CYPACKED typedef struct
 124:.\Generated_Source\PSoC4/cyfitter_cfg.c **** {
 125:.\Generated_Source\PSoC4/cyfitter_cfg.c **** 	uint8 offset;
 126:.\Generated_Source\PSoC4/cyfitter_cfg.c **** 	uint8 value;
 127:.\Generated_Source\PSoC4/cyfitter_cfg.c **** } CYPACKED_ATTR cy_cfg_addrvalue_t;
 128:.\Generated_Source\PSoC4/cyfitter_cfg.c **** 
 129:.\Generated_Source\PSoC4/cyfitter_cfg.c **** 
 130:.\Generated_Source\PSoC4/cyfitter_cfg.c **** 
 131:.\Generated_Source\PSoC4/cyfitter_cfg.c **** /*******************************************************************************
 132:.\Generated_Source\PSoC4/cyfitter_cfg.c **** * Function Name: cfg_write_bytes32
 133:.\Generated_Source\PSoC4/cyfitter_cfg.c **** ********************************************************************************
 134:.\Generated_Source\PSoC4/cyfitter_cfg.c **** * Summary:
 135:.\Generated_Source\PSoC4/cyfitter_cfg.c **** *  This function is used for setting up the chip configuration areas that
 136:.\Generated_Source\PSoC4/cyfitter_cfg.c **** *  contain relatively sparse data.
 137:.\Generated_Source\PSoC4/cyfitter_cfg.c **** *
 138:.\Generated_Source\PSoC4/cyfitter_cfg.c **** * Parameters:
 139:.\Generated_Source\PSoC4/cyfitter_cfg.c **** *   void
 140:.\Generated_Source\PSoC4/cyfitter_cfg.c **** *
 141:.\Generated_Source\PSoC4/cyfitter_cfg.c **** * Return:
 142:.\Generated_Source\PSoC4/cyfitter_cfg.c **** *   void
 143:.\Generated_Source\PSoC4/cyfitter_cfg.c **** *
 144:.\Generated_Source\PSoC4/cyfitter_cfg.c **** *******************************************************************************/
 145:.\Generated_Source\PSoC4/cyfitter_cfg.c **** static void cfg_write_bytes32(const uint32 addr_table[], const cy_cfg_addrvalue_t data_table[]);
 146:.\Generated_Source\PSoC4/cyfitter_cfg.c **** static void cfg_write_bytes32(const uint32 addr_table[], const cy_cfg_addrvalue_t data_table[])
 147:.\Generated_Source\PSoC4/cyfitter_cfg.c **** {
 131              		.loc 1 147 0
 132              		.cfi_startproc
 133 0000 80B5     		push	{r7, lr}
 134              		.cfi_def_cfa_offset 8
 135              		.cfi_offset 7, -8
 136              		.cfi_offset 14, -4
 137 0002 86B0     		sub	sp, sp, #24
 138              		.cfi_def_cfa_offset 32
ARM GAS  C:\Users\MANISH~1\AppData\Local\Temp\ccB4xhqf.s 			page 6


 139 0004 00AF     		add	r7, sp, #0
 140              		.cfi_def_cfa_register 7
 141 0006 7860     		str	r0, [r7, #4]
 142 0008 3960     		str	r1, [r7]
 148:.\Generated_Source\PSoC4/cyfitter_cfg.c **** 	/* For 32-bit little-endian architectures */
 149:.\Generated_Source\PSoC4/cyfitter_cfg.c **** 	uint32 i, j = 0u;
 143              		.loc 1 149 0
 144 000a 0023     		mov	r3, #0
 145 000c 3B61     		str	r3, [r7, #16]
 150:.\Generated_Source\PSoC4/cyfitter_cfg.c **** 	for (i = 0u; i < CY_CFG_BASE_ADDR_COUNT; i++)
 146              		.loc 1 150 0
 147 000e 0023     		mov	r3, #0
 148 0010 7B61     		str	r3, [r7, #20]
 149 0012 2EE0     		b	.L5
 150              	.L8:
 151              	.LBB2:
 151:.\Generated_Source\PSoC4/cyfitter_cfg.c **** 	{
 152:.\Generated_Source\PSoC4/cyfitter_cfg.c **** 		uint32 baseAddr = addr_table[i];
 152              		.loc 1 152 0
 153 0014 7B69     		ldr	r3, [r7, #20]
 154 0016 9B00     		lsl	r3, r3, #2
 155 0018 7A68     		ldr	r2, [r7, #4]
 156 001a D318     		add	r3, r2, r3
 157 001c 1B68     		ldr	r3, [r3]
 158 001e BB60     		str	r3, [r7, #8]
 153:.\Generated_Source\PSoC4/cyfitter_cfg.c **** 		uint8 count = (uint8)baseAddr;
 159              		.loc 1 153 0
 160 0020 3B1C     		mov	r3, r7
 161 0022 0F33     		add	r3, r3, #15
 162 0024 BA68     		ldr	r2, [r7, #8]
 163 0026 1A70     		strb	r2, [r3]
 154:.\Generated_Source\PSoC4/cyfitter_cfg.c **** 		baseAddr &= 0xFFFFFF00u;
 164              		.loc 1 154 0
 165 0028 BB68     		ldr	r3, [r7, #8]
 166 002a FF22     		mov	r2, #255
 167 002c 9343     		bic	r3, r2
 168 002e BB60     		str	r3, [r7, #8]
 155:.\Generated_Source\PSoC4/cyfitter_cfg.c **** 		while (count != 0u)
 169              		.loc 1 155 0
 170 0030 17E0     		b	.L6
 171              	.L7:
 156:.\Generated_Source\PSoC4/cyfitter_cfg.c **** 		{
 157:.\Generated_Source\PSoC4/cyfitter_cfg.c **** 			CY_SET_XTND_REG8((void CYFAR *)(baseAddr + data_table[j].offset), data_table[j].value);
 172              		.loc 1 157 0
 173 0032 3B69     		ldr	r3, [r7, #16]
 174 0034 5B00     		lsl	r3, r3, #1
 175 0036 3A68     		ldr	r2, [r7]
 176 0038 D318     		add	r3, r2, r3
 177 003a 1B78     		ldrb	r3, [r3]
 178 003c 1A1C     		mov	r2, r3
 179 003e BB68     		ldr	r3, [r7, #8]
 180 0040 D318     		add	r3, r2, r3
 181 0042 3A69     		ldr	r2, [r7, #16]
 182 0044 5200     		lsl	r2, r2, #1
 183 0046 3968     		ldr	r1, [r7]
 184 0048 8A18     		add	r2, r1, r2
 185 004a 5278     		ldrb	r2, [r2, #1]
ARM GAS  C:\Users\MANISH~1\AppData\Local\Temp\ccB4xhqf.s 			page 7


 186 004c 1A70     		strb	r2, [r3]
 158:.\Generated_Source\PSoC4/cyfitter_cfg.c **** 			j++;
 187              		.loc 1 158 0
 188 004e 3B69     		ldr	r3, [r7, #16]
 189 0050 0133     		add	r3, r3, #1
 190 0052 3B61     		str	r3, [r7, #16]
 159:.\Generated_Source\PSoC4/cyfitter_cfg.c **** 			count--;
 191              		.loc 1 159 0
 192 0054 3B1C     		mov	r3, r7
 193 0056 0F33     		add	r3, r3, #15
 194 0058 1A78     		ldrb	r2, [r3]
 195 005a 3B1C     		mov	r3, r7
 196 005c 0F33     		add	r3, r3, #15
 197 005e 013A     		sub	r2, r2, #1
 198 0060 1A70     		strb	r2, [r3]
 199              	.L6:
 155:.\Generated_Source\PSoC4/cyfitter_cfg.c **** 		while (count != 0u)
 200              		.loc 1 155 0 discriminator 1
 201 0062 3B1C     		mov	r3, r7
 202 0064 0F33     		add	r3, r3, #15
 203 0066 1B78     		ldrb	r3, [r3]
 204 0068 002B     		cmp	r3, #0
 205 006a E2D1     		bne	.L7
 206              	.LBE2:
 150:.\Generated_Source\PSoC4/cyfitter_cfg.c **** 	for (i = 0u; i < CY_CFG_BASE_ADDR_COUNT; i++)
 207              		.loc 1 150 0
 208 006c 7B69     		ldr	r3, [r7, #20]
 209 006e 0133     		add	r3, r3, #1
 210 0070 7B61     		str	r3, [r7, #20]
 211              	.L5:
 150:.\Generated_Source\PSoC4/cyfitter_cfg.c **** 	for (i = 0u; i < CY_CFG_BASE_ADDR_COUNT; i++)
 212              		.loc 1 150 0 is_stmt 0 discriminator 1
 213 0072 7B69     		ldr	r3, [r7, #20]
 214 0074 022B     		cmp	r3, #2
 215 0076 CDD9     		bls	.L8
 160:.\Generated_Source\PSoC4/cyfitter_cfg.c **** 		}
 161:.\Generated_Source\PSoC4/cyfitter_cfg.c **** 	}
 162:.\Generated_Source\PSoC4/cyfitter_cfg.c **** }
 216              		.loc 1 162 0 is_stmt 1
 217 0078 BD46     		mov	sp, r7
 218 007a 06B0     		add	sp, sp, #24
 219              		@ sp needed
 220 007c 80BD     		pop	{r7, pc}
 221              		.cfi_endproc
 222              	.LFE5:
 223              		.size	cfg_write_bytes32, .-cfg_write_bytes32
 224 007e C046     		.section	.psocinit,"ax",%progbits
 225              		.align	2
 226              		.code	16
 227              		.thumb_func
 228              		.type	SetIMOBGTrims, %function
 229              	SetIMOBGTrims:
 230              	.LFB6:
 163:.\Generated_Source\PSoC4/cyfitter_cfg.c **** 
 164:.\Generated_Source\PSoC4/cyfitter_cfg.c **** /*******************************************************************************
 165:.\Generated_Source\PSoC4/cyfitter_cfg.c **** * Function Name: SetIMOBGTrims
 166:.\Generated_Source\PSoC4/cyfitter_cfg.c **** ********************************************************************************
ARM GAS  C:\Users\MANISH~1\AppData\Local\Temp\ccB4xhqf.s 			page 8


 167:.\Generated_Source\PSoC4/cyfitter_cfg.c **** *
 168:.\Generated_Source\PSoC4/cyfitter_cfg.c **** * Summary:
 169:.\Generated_Source\PSoC4/cyfitter_cfg.c **** *   Performs the configuration of the bandgap trim for the IMO based on the given
 170:.\Generated_Source\PSoC4/cyfitter_cfg.c **** *   expected frequency of the IMO. 
 171:.\Generated_Source\PSoC4/cyfitter_cfg.c **** *
 172:.\Generated_Source\PSoC4/cyfitter_cfg.c **** * Parameters:
 173:.\Generated_Source\PSoC4/cyfitter_cfg.c **** *   imoFreq: Frequency for operation of the IMO.
 174:.\Generated_Source\PSoC4/cyfitter_cfg.c **** *
 175:.\Generated_Source\PSoC4/cyfitter_cfg.c **** * Return:
 176:.\Generated_Source\PSoC4/cyfitter_cfg.c **** *   void
 177:.\Generated_Source\PSoC4/cyfitter_cfg.c **** *
 178:.\Generated_Source\PSoC4/cyfitter_cfg.c **** *******************************************************************************/
 179:.\Generated_Source\PSoC4/cyfitter_cfg.c **** static void SetIMOBGTrims(uint8 imoFreq);
 180:.\Generated_Source\PSoC4/cyfitter_cfg.c **** CY_CFG_SECTION
 181:.\Generated_Source\PSoC4/cyfitter_cfg.c **** static void SetIMOBGTrims(uint8 imoFreq)
 182:.\Generated_Source\PSoC4/cyfitter_cfg.c **** {
 231              		.loc 1 182 0
 232              		.cfi_startproc
 233 0000 80B5     		push	{r7, lr}
 234              		.cfi_def_cfa_offset 8
 235              		.cfi_offset 7, -8
 236              		.cfi_offset 14, -4
 237 0002 84B0     		sub	sp, sp, #16
 238              		.cfi_def_cfa_offset 24
 239 0004 00AF     		add	r7, sp, #0
 240              		.cfi_def_cfa_register 7
 241 0006 021C     		mov	r2, r0
 242 0008 FB1D     		add	r3, r7, #7
 243 000a 1A70     		strb	r2, [r3]
 183:.\Generated_Source\PSoC4/cyfitter_cfg.c **** 	CYPACKED typedef struct {
 184:.\Generated_Source\PSoC4/cyfitter_cfg.c **** 		uint8 freq;
 185:.\Generated_Source\PSoC4/cyfitter_cfg.c **** 		uint8 absolute;
 186:.\Generated_Source\PSoC4/cyfitter_cfg.c **** 		uint8 tmpco;
 187:.\Generated_Source\PSoC4/cyfitter_cfg.c **** 	} CYPACKED_ATTR imo_trim_entry_t;
 188:.\Generated_Source\PSoC4/cyfitter_cfg.c **** 
 189:.\Generated_Source\PSoC4/cyfitter_cfg.c **** 	CYPACKED typedef struct {
 190:.\Generated_Source\PSoC4/cyfitter_cfg.c **** 		imo_trim_entry_t entries[4];
 191:.\Generated_Source\PSoC4/cyfitter_cfg.c **** 	} CYPACKED_ATTR imo_trim_table_t;
 192:.\Generated_Source\PSoC4/cyfitter_cfg.c **** 
 193:.\Generated_Source\PSoC4/cyfitter_cfg.c **** 	static const imo_trim_table_t *imo_trim_table = (const imo_trim_table_t *)CYREG_SFLASH_IMO_MAXF0;
 194:.\Generated_Source\PSoC4/cyfitter_cfg.c **** 	static const uint32 IMO_TRIM_FREQ_TABLE_ENTRIES = sizeof(imo_trim_table->entries)/sizeof(imo_trim_
 195:.\Generated_Source\PSoC4/cyfitter_cfg.c **** 
 196:.\Generated_Source\PSoC4/cyfitter_cfg.c **** 	int32 imoTrimIndex;
 197:.\Generated_Source\PSoC4/cyfitter_cfg.c **** 	uint8 setAbs;
 198:.\Generated_Source\PSoC4/cyfitter_cfg.c **** 	uint8 setTmpCo;
 199:.\Generated_Source\PSoC4/cyfitter_cfg.c **** 
 200:.\Generated_Source\PSoC4/cyfitter_cfg.c **** 	/* Traverse the SFLASH IMO frequency-dependent bandgap trim table to
 201:.\Generated_Source\PSoC4/cyfitter_cfg.c **** 	 * locate the appropriate value to trim the IMO bandgap based on freq. */
 202:.\Generated_Source\PSoC4/cyfitter_cfg.c **** 	setAbs = CY_GET_REG8((const void *)CYREG_SFLASH_IMO_ABS4);
 244              		.loc 1 202 0
 245 000c 204A     		ldr	r2, .L13
 246 000e 3B1C     		mov	r3, r7
 247 0010 0B33     		add	r3, r3, #11
 248 0012 1278     		ldrb	r2, [r2]
 249 0014 1A70     		strb	r2, [r3]
 203:.\Generated_Source\PSoC4/cyfitter_cfg.c **** 	setTmpCo = CY_GET_REG8((const void *)CYREG_SFLASH_IMO_TMPCO4);
 250              		.loc 1 203 0
ARM GAS  C:\Users\MANISH~1\AppData\Local\Temp\ccB4xhqf.s 			page 9


 251 0016 1F4A     		ldr	r2, .L13+4
 252 0018 3B1C     		mov	r3, r7
 253 001a 0A33     		add	r3, r3, #10
 254 001c 1278     		ldrb	r2, [r2]
 255 001e 1A70     		strb	r2, [r3]
 204:.\Generated_Source\PSoC4/cyfitter_cfg.c **** 	for (imoTrimIndex = ((int32)IMO_TRIM_FREQ_TABLE_ENTRIES)-1;
 256              		.loc 1 204 0
 257 0020 0423     		mov	r3, #4
 258 0022 013B     		sub	r3, r3, #1
 259 0024 FB60     		str	r3, [r7, #12]
 260 0026 18E0     		b	.L10
 261              	.L12:
 205:.\Generated_Source\PSoC4/cyfitter_cfg.c **** 	     (imoTrimIndex >= 0) && (imoFreq <= imo_trim_table->entries[imoTrimIndex].freq);
 206:.\Generated_Source\PSoC4/cyfitter_cfg.c **** 	     imoTrimIndex--)
 207:.\Generated_Source\PSoC4/cyfitter_cfg.c **** 	{
 208:.\Generated_Source\PSoC4/cyfitter_cfg.c **** 		setAbs = imo_trim_table->entries[imoTrimIndex].absolute;
 262              		.loc 1 208 0
 263 0028 1B4B     		ldr	r3, .L13+8
 264 002a 1868     		ldr	r0, [r3]
 265 002c 391C     		mov	r1, r7
 266 002e 0B31     		add	r1, r1, #11
 267 0030 FA68     		ldr	r2, [r7, #12]
 268 0032 131C     		mov	r3, r2
 269 0034 5B00     		lsl	r3, r3, #1
 270 0036 9B18     		add	r3, r3, r2
 271 0038 C318     		add	r3, r0, r3
 272 003a 5B78     		ldrb	r3, [r3, #1]
 273 003c 0B70     		strb	r3, [r1]
 209:.\Generated_Source\PSoC4/cyfitter_cfg.c **** 		setTmpCo = imo_trim_table->entries[imoTrimIndex].tmpco;
 274              		.loc 1 209 0
 275 003e 164B     		ldr	r3, .L13+8
 276 0040 1868     		ldr	r0, [r3]
 277 0042 391C     		mov	r1, r7
 278 0044 0A31     		add	r1, r1, #10
 279 0046 FA68     		ldr	r2, [r7, #12]
 280 0048 131C     		mov	r3, r2
 281 004a 5B00     		lsl	r3, r3, #1
 282 004c 9B18     		add	r3, r3, r2
 283 004e C318     		add	r3, r0, r3
 284 0050 9B78     		ldrb	r3, [r3, #2]
 285 0052 0B70     		strb	r3, [r1]
 206:.\Generated_Source\PSoC4/cyfitter_cfg.c **** 	     imoTrimIndex--)
 286              		.loc 1 206 0
 287 0054 FB68     		ldr	r3, [r7, #12]
 288 0056 013B     		sub	r3, r3, #1
 289 0058 FB60     		str	r3, [r7, #12]
 290              	.L10:
 204:.\Generated_Source\PSoC4/cyfitter_cfg.c **** 	for (imoTrimIndex = ((int32)IMO_TRIM_FREQ_TABLE_ENTRIES)-1;
 291              		.loc 1 204 0 discriminator 1
 292 005a FB68     		ldr	r3, [r7, #12]
 293 005c 002B     		cmp	r3, #0
 294 005e 0ADB     		blt	.L11
 205:.\Generated_Source\PSoC4/cyfitter_cfg.c **** 	     (imoTrimIndex >= 0) && (imoFreq <= imo_trim_table->entries[imoTrimIndex].freq);
 295              		.loc 1 205 0
 296 0060 0D4B     		ldr	r3, .L13+8
 297 0062 1968     		ldr	r1, [r3]
 298 0064 FA68     		ldr	r2, [r7, #12]
ARM GAS  C:\Users\MANISH~1\AppData\Local\Temp\ccB4xhqf.s 			page 10


 299 0066 131C     		mov	r3, r2
 300 0068 5B00     		lsl	r3, r3, #1
 301 006a 9B18     		add	r3, r3, r2
 302 006c 5B5C     		ldrb	r3, [r3, r1]
 303 006e FA1D     		add	r2, r7, #7
 304 0070 1278     		ldrb	r2, [r2]
 305 0072 9A42     		cmp	r2, r3
 306 0074 D8D9     		bls	.L12
 307              	.L11:
 210:.\Generated_Source\PSoC4/cyfitter_cfg.c **** 	}
 211:.\Generated_Source\PSoC4/cyfitter_cfg.c **** 
 212:.\Generated_Source\PSoC4/cyfitter_cfg.c **** 	CY_SET_REG32((void *)CYREG_PWR_BG_TRIM4, setAbs);
 308              		.loc 1 212 0
 309 0076 094B     		ldr	r3, .L13+12
 310 0078 3A1C     		mov	r2, r7
 311 007a 0B32     		add	r2, r2, #11
 312 007c 1278     		ldrb	r2, [r2]
 313 007e 1A60     		str	r2, [r3]
 213:.\Generated_Source\PSoC4/cyfitter_cfg.c **** 	CY_SET_REG32((void *)CYREG_PWR_BG_TRIM5, setTmpCo);
 314              		.loc 1 213 0
 315 0080 074B     		ldr	r3, .L13+16
 316 0082 3A1C     		mov	r2, r7
 317 0084 0A32     		add	r2, r2, #10
 318 0086 1278     		ldrb	r2, [r2]
 319 0088 1A60     		str	r2, [r3]
 214:.\Generated_Source\PSoC4/cyfitter_cfg.c **** }
 320              		.loc 1 214 0
 321 008a BD46     		mov	sp, r7
 322 008c 04B0     		add	sp, sp, #16
 323              		@ sp needed
 324 008e 80BD     		pop	{r7, pc}
 325              	.L14:
 326              		.align	2
 327              	.L13:
 328 0090 CCF1FF0F 		.word	268431820
 329 0094 CDF1FF0F 		.word	268431821
 330 0098 00000000 		.word	imo_trim_table.4740
 331 009c 1CFF0B40 		.word	1074528028
 332 00a0 20FF0B40 		.word	1074528032
 333              		.cfi_endproc
 334              	.LFE6:
 335              		.size	SetIMOBGTrims, .-SetIMOBGTrims
 336              		.align	2
 337              		.code	16
 338              		.thumb_func
 339              		.type	ClockSetup, %function
 340              	ClockSetup:
 341              	.LFB7:
 215:.\Generated_Source\PSoC4/cyfitter_cfg.c **** 
 216:.\Generated_Source\PSoC4/cyfitter_cfg.c **** 
 217:.\Generated_Source\PSoC4/cyfitter_cfg.c **** 
 218:.\Generated_Source\PSoC4/cyfitter_cfg.c **** /*******************************************************************************
 219:.\Generated_Source\PSoC4/cyfitter_cfg.c **** * Function Name: ClockSetup
 220:.\Generated_Source\PSoC4/cyfitter_cfg.c **** ********************************************************************************
 221:.\Generated_Source\PSoC4/cyfitter_cfg.c **** *
 222:.\Generated_Source\PSoC4/cyfitter_cfg.c **** * Summary:
 223:.\Generated_Source\PSoC4/cyfitter_cfg.c **** *   Performs the initialization of all of the clocks in the device based on the
ARM GAS  C:\Users\MANISH~1\AppData\Local\Temp\ccB4xhqf.s 			page 11


 224:.\Generated_Source\PSoC4/cyfitter_cfg.c **** *   settings in the Clock tab of the DWR.  This includes enabling the requested
 225:.\Generated_Source\PSoC4/cyfitter_cfg.c **** *   clocks and setting the necessary dividers to produce the desired frequency. 
 226:.\Generated_Source\PSoC4/cyfitter_cfg.c **** *
 227:.\Generated_Source\PSoC4/cyfitter_cfg.c **** * Parameters:
 228:.\Generated_Source\PSoC4/cyfitter_cfg.c **** *   void
 229:.\Generated_Source\PSoC4/cyfitter_cfg.c **** *
 230:.\Generated_Source\PSoC4/cyfitter_cfg.c **** * Return:
 231:.\Generated_Source\PSoC4/cyfitter_cfg.c **** *   void
 232:.\Generated_Source\PSoC4/cyfitter_cfg.c **** *
 233:.\Generated_Source\PSoC4/cyfitter_cfg.c **** *******************************************************************************/
 234:.\Generated_Source\PSoC4/cyfitter_cfg.c **** static void ClockSetup(void);
 235:.\Generated_Source\PSoC4/cyfitter_cfg.c **** CY_CFG_SECTION
 236:.\Generated_Source\PSoC4/cyfitter_cfg.c **** static void ClockSetup(void)
 237:.\Generated_Source\PSoC4/cyfitter_cfg.c **** {
 342              		.loc 1 237 0
 343              		.cfi_startproc
 344 00a4 80B5     		push	{r7, lr}
 345              		.cfi_def_cfa_offset 8
 346              		.cfi_offset 7, -8
 347              		.cfi_offset 14, -4
 348 00a6 00AF     		add	r7, sp, #0
 349              		.cfi_def_cfa_register 7
 238:.\Generated_Source\PSoC4/cyfitter_cfg.c **** 
 239:.\Generated_Source\PSoC4/cyfitter_cfg.c **** 	/* Set Flash Cycles based on max possible frequency in case a glitch occurs during ClockSetup(). *
 240:.\Generated_Source\PSoC4/cyfitter_cfg.c **** 	CY_SET_REG32((void CYXDATA *)(CYREG_CPUSS_FLASH_CTL), (0x0012u));
 350              		.loc 1 240 0
 351 00a8 244B     		ldr	r3, .L16
 352 00aa 1222     		mov	r2, #18
 353 00ac 1A60     		str	r2, [r3]
 241:.\Generated_Source\PSoC4/cyfitter_cfg.c **** 	/* Trim IMO BG based on desired frequency. */
 242:.\Generated_Source\PSoC4/cyfitter_cfg.c **** 	SetIMOBGTrims(12u);
 354              		.loc 1 242 0
 355 00ae 0C20     		mov	r0, #12
 356 00b0 FFF7A6FF 		bl	SetIMOBGTrims
 243:.\Generated_Source\PSoC4/cyfitter_cfg.c **** 
 244:.\Generated_Source\PSoC4/cyfitter_cfg.c **** 	/* Going less than or equal to 24MHz, so update the clock speed then adjust trim value. */
 245:.\Generated_Source\PSoC4/cyfitter_cfg.c **** 	CY_SET_REG32((void CYXDATA *)(CYREG_CLK_IMO_TRIM2), (12u));
 357              		.loc 1 245 0
 358 00b4 224B     		ldr	r3, .L16+4
 359 00b6 0C22     		mov	r2, #12
 360 00b8 1A60     		str	r2, [r3]
 246:.\Generated_Source\PSoC4/cyfitter_cfg.c **** 	CyDelayCycles(5u);
 361              		.loc 1 246 0
 362 00ba 0520     		mov	r0, #5
 363 00bc FFF7FEFF 		bl	CyDelayCycles
 247:.\Generated_Source\PSoC4/cyfitter_cfg.c **** 	CY_SET_REG32((void CYXDATA *)(CYREG_CLK_IMO_TRIM1), (CY_GET_REG8((void *)CYREG_SFLASH_IMO_TRIM09))
 364              		.loc 1 247 0
 365 00c0 204B     		ldr	r3, .L16+8
 366 00c2 214A     		ldr	r2, .L16+12
 367 00c4 1278     		ldrb	r2, [r2]
 368 00c6 D2B2     		uxtb	r2, r2
 369 00c8 1A60     		str	r2, [r3]
 248:.\Generated_Source\PSoC4/cyfitter_cfg.c **** 	CyDelayUs(5u);
 370              		.loc 1 248 0
 371 00ca 0520     		mov	r0, #5
 372 00cc FFF7FEFF 		bl	CyDelayUs
 249:.\Generated_Source\PSoC4/cyfitter_cfg.c **** 
ARM GAS  C:\Users\MANISH~1\AppData\Local\Temp\ccB4xhqf.s 			page 12


 250:.\Generated_Source\PSoC4/cyfitter_cfg.c **** 	/* Start the WCO */
 251:.\Generated_Source\PSoC4/cyfitter_cfg.c **** 	CySysClkWcoStart();
 373              		.loc 1 251 0
 374 00d0 FFF7FEFF 		bl	CySysClkWcoStart
 252:.\Generated_Source\PSoC4/cyfitter_cfg.c **** 	CyDelay(500u); /* WCO may take up to 500ms to start */
 375              		.loc 1 252 0
 376 00d4 FA23     		mov	r3, #250
 377 00d6 5B00     		lsl	r3, r3, #1
 378 00d8 181C     		mov	r0, r3
 379 00da FFF7FEFF 		bl	CyDelay
 253:.\Generated_Source\PSoC4/cyfitter_cfg.c **** 	(void)CySysClkWcoSetPowerMode(CY_SYS_CLK_WCO_LPM);    /* Switch to the low power mode */
 380              		.loc 1 253 0
 381 00de 0120     		mov	r0, #1
 382 00e0 FFF7FEFF 		bl	CySysClkWcoSetPowerMode
 254:.\Generated_Source\PSoC4/cyfitter_cfg.c **** 	/* CYDEV_CLK_ILO_CONFIG Starting address: CYDEV_CLK_ILO_CONFIG */
 255:.\Generated_Source\PSoC4/cyfitter_cfg.c **** 	CY_SET_XTND_REG32((void CYFAR *)(CYREG_CLK_ILO_CONFIG), 0x80000006u);
 383              		.loc 1 255 0
 384 00e4 194B     		ldr	r3, .L16+16
 385 00e6 1A4A     		ldr	r2, .L16+20
 386 00e8 1A60     		str	r2, [r3]
 256:.\Generated_Source\PSoC4/cyfitter_cfg.c **** 
 257:.\Generated_Source\PSoC4/cyfitter_cfg.c **** 	/* CYDEV_WDT_CONFIG Starting address: CYDEV_WDT_CONFIG */
 258:.\Generated_Source\PSoC4/cyfitter_cfg.c **** 	CY_SET_XTND_REG32((void CYFAR *)(CYREG_WDT_CONFIG), 0x40000000u);
 387              		.loc 1 258 0
 388 00ea 1A4B     		ldr	r3, .L16+24
 389 00ec 8022     		mov	r2, #128
 390 00ee D205     		lsl	r2, r2, #23
 391 00f0 1A60     		str	r2, [r3]
 259:.\Generated_Source\PSoC4/cyfitter_cfg.c **** 
 260:.\Generated_Source\PSoC4/cyfitter_cfg.c **** 
 261:.\Generated_Source\PSoC4/cyfitter_cfg.c **** 	CY_SET_XTND_REG32((void CYFAR *)(CYREG_BLE_BLERD_BB_XO_CAPTRIM), 0x00002D6Au);
 392              		.loc 1 261 0
 393 00f2 194B     		ldr	r3, .L16+28
 394 00f4 194A     		ldr	r2, .L16+32
 395 00f6 1A60     		str	r2, [r3]
 262:.\Generated_Source\PSoC4/cyfitter_cfg.c **** 	/* Disable Crystal Stable Interrupt before enabling ECO */
 263:.\Generated_Source\PSoC4/cyfitter_cfg.c **** 	CY_SET_REG32((void*)CYREG_BLE_BLESS_LL_DSM_CTRL, CY_GET_REG32((void*)CYREG_BLE_BLESS_LL_DSM_CTRL) 
 396              		.loc 1 263 0
 397 00f8 194B     		ldr	r3, .L16+36
 398 00fa 194A     		ldr	r2, .L16+36
 399 00fc 1268     		ldr	r2, [r2]
 400 00fe 0821     		mov	r1, #8
 401 0100 8A43     		bic	r2, r1
 402 0102 1A60     		str	r2, [r3]
 264:.\Generated_Source\PSoC4/cyfitter_cfg.c **** 	/* Start the ECO and do not check status since it is not needed for HFCLK */
 265:.\Generated_Source\PSoC4/cyfitter_cfg.c **** 	(void)CySysClkEcoStart(2000u);
 403              		.loc 1 265 0
 404 0104 FA23     		mov	r3, #250
 405 0106 DB00     		lsl	r3, r3, #3
 406 0108 181C     		mov	r0, r3
 407 010a FFF7FEFF 		bl	CySysClkEcoStart
 266:.\Generated_Source\PSoC4/cyfitter_cfg.c **** 	CyDelayUs(1500u); /* Wait to stabalize */
 408              		.loc 1 266 0
 409 010e 154B     		ldr	r3, .L16+40
 410 0110 181C     		mov	r0, r3
 411 0112 FFF7FEFF 		bl	CyDelayUs
 267:.\Generated_Source\PSoC4/cyfitter_cfg.c **** 
ARM GAS  C:\Users\MANISH~1\AppData\Local\Temp\ccB4xhqf.s 			page 13


 268:.\Generated_Source\PSoC4/cyfitter_cfg.c **** 	/* Setup phase aligned clocks */
 269:.\Generated_Source\PSoC4/cyfitter_cfg.c **** 	CY_SET_REG32((void *)CYREG_PERI_DIV_16_CTL00, 0x00000300u);
 412              		.loc 1 269 0
 413 0116 144B     		ldr	r3, .L16+44
 414 0118 C022     		mov	r2, #192
 415 011a 9200     		lsl	r2, r2, #2
 416 011c 1A60     		str	r2, [r3]
 270:.\Generated_Source\PSoC4/cyfitter_cfg.c **** 	CY_SET_REG32((void *)CYREG_PERI_DIV_CMD, 0x8000FF40u);
 417              		.loc 1 270 0
 418 011e 134B     		ldr	r3, .L16+48
 419 0120 134A     		ldr	r2, .L16+52
 420 0122 1A60     		str	r2, [r3]
 271:.\Generated_Source\PSoC4/cyfitter_cfg.c **** 
 272:.\Generated_Source\PSoC4/cyfitter_cfg.c **** 	/* CYDEV_CLK_IMO_CONFIG Starting address: CYDEV_CLK_IMO_CONFIG */
 273:.\Generated_Source\PSoC4/cyfitter_cfg.c **** 	CY_SET_XTND_REG32((void CYFAR *)(CYREG_CLK_IMO_CONFIG), 0xA6000000u);
 421              		.loc 1 273 0
 422 0124 134B     		ldr	r3, .L16+56
 423 0126 A622     		mov	r2, #166
 424 0128 1206     		lsl	r2, r2, #24
 425 012a 1A60     		str	r2, [r3]
 274:.\Generated_Source\PSoC4/cyfitter_cfg.c **** 
 275:.\Generated_Source\PSoC4/cyfitter_cfg.c **** 	/* CYDEV_PERI_PCLK_CTL06 Starting address: CYDEV_PERI_PCLK_CTL06 */
 276:.\Generated_Source\PSoC4/cyfitter_cfg.c **** 	CY_SET_XTND_REG32((void CYFAR *)(CYREG_PERI_PCLK_CTL06), 0x00000040u);
 426              		.loc 1 276 0
 427 012c 124B     		ldr	r3, .L16+60
 428 012e 4022     		mov	r2, #64
 429 0130 1A60     		str	r2, [r3]
 277:.\Generated_Source\PSoC4/cyfitter_cfg.c **** 
 278:.\Generated_Source\PSoC4/cyfitter_cfg.c **** 	/* Set Flash Cycles based on newly configured 12.00MHz HFCLK. */
 279:.\Generated_Source\PSoC4/cyfitter_cfg.c **** 	CY_SET_REG32((void CYXDATA *)(CYREG_CPUSS_FLASH_CTL), (0x0000u));
 430              		.loc 1 279 0
 431 0132 024B     		ldr	r3, .L16
 432 0134 0022     		mov	r2, #0
 433 0136 1A60     		str	r2, [r3]
 280:.\Generated_Source\PSoC4/cyfitter_cfg.c **** }
 434              		.loc 1 280 0
 435 0138 BD46     		mov	sp, r7
 436              		@ sp needed
 437 013a 80BD     		pop	{r7, pc}
 438              	.L17:
 439              		.align	2
 440              	.L16:
 441 013c 30001040 		.word	1074790448
 442 0140 2CFF0B40 		.word	1074528044
 443 0144 28FF0B40 		.word	1074528040
 444 0148 D9F1FF0F 		.word	268431833
 445 014c 04010B40 		.word	1074462980
 446 0150 06000080 		.word	-2147483642
 447 0154 0C020B40 		.word	1074463244
 448 0158 7C002E40 		.word	1076756604
 449 015c 6A2D0000 		.word	11626
 450 0160 6CF02E40 		.word	1076818028
 451 0164 DC050000 		.word	1500
 452 0168 00030140 		.word	1073808128
 453 016c 00000140 		.word	1073807360
 454 0170 40FF0080 		.word	-2147418304
 455 0174 08010B40 		.word	1074462984
ARM GAS  C:\Users\MANISH~1\AppData\Local\Temp\ccB4xhqf.s 			page 14


 456 0178 18010140 		.word	1073807640
 457              		.cfi_endproc
 458              	.LFE7:
 459              		.size	ClockSetup, .-ClockSetup
 460              		.section	.text.AnalogSetDefault,"ax",%progbits
 461              		.align	2
 462              		.code	16
 463              		.thumb_func
 464              		.type	AnalogSetDefault, %function
 465              	AnalogSetDefault:
 466              	.LFB8:
 281:.\Generated_Source\PSoC4/cyfitter_cfg.c **** 
 282:.\Generated_Source\PSoC4/cyfitter_cfg.c **** 
 283:.\Generated_Source\PSoC4/cyfitter_cfg.c **** /* Analog API Functions */
 284:.\Generated_Source\PSoC4/cyfitter_cfg.c **** 
 285:.\Generated_Source\PSoC4/cyfitter_cfg.c **** 
 286:.\Generated_Source\PSoC4/cyfitter_cfg.c **** /*******************************************************************************
 287:.\Generated_Source\PSoC4/cyfitter_cfg.c **** * Function Name: AnalogSetDefault
 288:.\Generated_Source\PSoC4/cyfitter_cfg.c **** ********************************************************************************
 289:.\Generated_Source\PSoC4/cyfitter_cfg.c **** *
 290:.\Generated_Source\PSoC4/cyfitter_cfg.c **** * Summary:
 291:.\Generated_Source\PSoC4/cyfitter_cfg.c **** *  Sets up the analog portions of the chip to default values based on chip
 292:.\Generated_Source\PSoC4/cyfitter_cfg.c **** *  configuration options from the project.
 293:.\Generated_Source\PSoC4/cyfitter_cfg.c **** *
 294:.\Generated_Source\PSoC4/cyfitter_cfg.c **** * Parameters:
 295:.\Generated_Source\PSoC4/cyfitter_cfg.c **** *  void
 296:.\Generated_Source\PSoC4/cyfitter_cfg.c **** *
 297:.\Generated_Source\PSoC4/cyfitter_cfg.c **** * Return:
 298:.\Generated_Source\PSoC4/cyfitter_cfg.c **** *  void
 299:.\Generated_Source\PSoC4/cyfitter_cfg.c **** *
 300:.\Generated_Source\PSoC4/cyfitter_cfg.c **** *******************************************************************************/
 301:.\Generated_Source\PSoC4/cyfitter_cfg.c **** static void AnalogSetDefault(void);
 302:.\Generated_Source\PSoC4/cyfitter_cfg.c **** static void AnalogSetDefault(void)
 303:.\Generated_Source\PSoC4/cyfitter_cfg.c **** {
 467              		.loc 1 303 0
 468              		.cfi_startproc
 469 0000 80B5     		push	{r7, lr}
 470              		.cfi_def_cfa_offset 8
 471              		.cfi_offset 7, -8
 472              		.cfi_offset 14, -4
 473 0002 00AF     		add	r7, sp, #0
 474              		.cfi_def_cfa_register 7
 304:.\Generated_Source\PSoC4/cyfitter_cfg.c **** 	CY_SET_XTND_REG32((void CYFAR *)CYREG_CTBM0_CTB_CTRL, 0xC0000000u);
 475              		.loc 1 304 0
 476 0004 0E4B     		ldr	r3, .L19
 477 0006 C022     		mov	r2, #192
 478 0008 1206     		lsl	r2, r2, #24
 479 000a 1A60     		str	r2, [r3]
 305:.\Generated_Source\PSoC4/cyfitter_cfg.c **** 	CY_SET_XTND_REG32((void CYFAR *)CYREG_CTBM0_DFT_CTRL, 0x00000003u);
 480              		.loc 1 305 0
 481 000c 0D4B     		ldr	r3, .L19+4
 482 000e 0322     		mov	r2, #3
 483 0010 1A60     		str	r2, [r3]
 306:.\Generated_Source\PSoC4/cyfitter_cfg.c **** 	CY_SET_XTND_REG32((void CYFAR *)CYREG_CTBM0_OA0_SW, 0x00044004u);
 484              		.loc 1 306 0
 485 0012 0D4B     		ldr	r3, .L19+8
 486 0014 0D4A     		ldr	r2, .L19+12
ARM GAS  C:\Users\MANISH~1\AppData\Local\Temp\ccB4xhqf.s 			page 15


 487 0016 1A60     		str	r2, [r3]
 307:.\Generated_Source\PSoC4/cyfitter_cfg.c **** 	CY_SET_XTND_REG32((void CYFAR *)CYREG_CTBM1_DFT_CTRL, 0x00000003u);
 488              		.loc 1 307 0
 489 0018 0D4B     		ldr	r3, .L19+16
 490 001a 0322     		mov	r2, #3
 491 001c 1A60     		str	r2, [r3]
 308:.\Generated_Source\PSoC4/cyfitter_cfg.c **** 	CY_SET_XTND_REG32((void CYFAR *)CYREG_SAR_CTRL, 0x08000000u);
 492              		.loc 1 308 0
 493 001e 0D4B     		ldr	r3, .L19+20
 494 0020 8022     		mov	r2, #128
 495 0022 1205     		lsl	r2, r2, #20
 496 0024 1A60     		str	r2, [r3]
 309:.\Generated_Source\PSoC4/cyfitter_cfg.c **** 	CY_SET_XTND_REG32((void CYFAR *)CYREG_SAR_MUX_SWITCH0, 0x00400000u);
 497              		.loc 1 309 0
 498 0026 0C4B     		ldr	r3, .L19+24
 499 0028 8022     		mov	r2, #128
 500 002a D203     		lsl	r2, r2, #15
 501 002c 1A60     		str	r2, [r3]
 310:.\Generated_Source\PSoC4/cyfitter_cfg.c **** 	CY_SET_XTND_REG32((void CYFAR *)CYREG_PASS_DSAB_DSAB_CTRL, 0x80000103u);
 502              		.loc 1 310 0
 503 002e 0B4B     		ldr	r3, .L19+28
 504 0030 0B4A     		ldr	r2, .L19+32
 505 0032 1A60     		str	r2, [r3]
 311:.\Generated_Source\PSoC4/cyfitter_cfg.c **** 	SetAnalogRoutingPumps(1);
 506              		.loc 1 311 0
 507 0034 0120     		mov	r0, #1
 508 0036 FFF7FEFF 		bl	SetAnalogRoutingPumps
 312:.\Generated_Source\PSoC4/cyfitter_cfg.c **** }
 509              		.loc 1 312 0
 510 003a BD46     		mov	sp, r7
 511              		@ sp needed
 512 003c 80BD     		pop	{r7, pc}
 513              	.L20:
 514 003e C046     		.align	2
 515              	.L19:
 516 0040 00003040 		.word	1076887552
 517 0044 30003040 		.word	1076887600
 518 0048 80003040 		.word	1076887680
 519 004c 04400400 		.word	278532
 520 0050 30003140 		.word	1076953136
 521 0054 00003A40 		.word	1077542912
 522 0058 00033A40 		.word	1077543680
 523 005c 000E3F40 		.word	1077874176
 524 0060 03010080 		.word	-2147483389
 525              		.cfi_endproc
 526              	.LFE8:
 527              		.size	AnalogSetDefault, .-AnalogSetDefault
 528              		.section	.text.SetAnalogRoutingPumps,"ax",%progbits
 529              		.align	2
 530              		.global	SetAnalogRoutingPumps
 531              		.code	16
 532              		.thumb_func
 533              		.type	SetAnalogRoutingPumps, %function
 534              	SetAnalogRoutingPumps:
 535              	.LFB9:
 313:.\Generated_Source\PSoC4/cyfitter_cfg.c **** 
 314:.\Generated_Source\PSoC4/cyfitter_cfg.c **** 
ARM GAS  C:\Users\MANISH~1\AppData\Local\Temp\ccB4xhqf.s 			page 16


 315:.\Generated_Source\PSoC4/cyfitter_cfg.c **** /*******************************************************************************
 316:.\Generated_Source\PSoC4/cyfitter_cfg.c **** * Function Name: SetAnalogRoutingPumps
 317:.\Generated_Source\PSoC4/cyfitter_cfg.c **** ********************************************************************************
 318:.\Generated_Source\PSoC4/cyfitter_cfg.c **** *
 319:.\Generated_Source\PSoC4/cyfitter_cfg.c **** * Summary:
 320:.\Generated_Source\PSoC4/cyfitter_cfg.c **** * Enables or disables the analog pumps feeding analog routing switches.
 321:.\Generated_Source\PSoC4/cyfitter_cfg.c **** * Intended to be called at startup, based on the Vdda system configuration;
 322:.\Generated_Source\PSoC4/cyfitter_cfg.c **** * may be called during operation when the user informs us that the Vdda voltage crossed the pump th
 323:.\Generated_Source\PSoC4/cyfitter_cfg.c **** *
 324:.\Generated_Source\PSoC4/cyfitter_cfg.c **** * Parameters:
 325:.\Generated_Source\PSoC4/cyfitter_cfg.c **** *  enabled - 1 to enable the pumps, 0 to disable the pumps
 326:.\Generated_Source\PSoC4/cyfitter_cfg.c **** *
 327:.\Generated_Source\PSoC4/cyfitter_cfg.c **** * Return:
 328:.\Generated_Source\PSoC4/cyfitter_cfg.c **** *  void
 329:.\Generated_Source\PSoC4/cyfitter_cfg.c **** *
 330:.\Generated_Source\PSoC4/cyfitter_cfg.c **** *******************************************************************************/
 331:.\Generated_Source\PSoC4/cyfitter_cfg.c **** void SetAnalogRoutingPumps(uint8 enabled)
 332:.\Generated_Source\PSoC4/cyfitter_cfg.c **** {
 536              		.loc 1 332 0
 537              		.cfi_startproc
 538 0000 80B5     		push	{r7, lr}
 539              		.cfi_def_cfa_offset 8
 540              		.cfi_offset 7, -8
 541              		.cfi_offset 14, -4
 542 0002 84B0     		sub	sp, sp, #16
 543              		.cfi_def_cfa_offset 24
 544 0004 00AF     		add	r7, sp, #0
 545              		.cfi_def_cfa_register 7
 546 0006 021C     		mov	r2, r0
 547 0008 FB1D     		add	r3, r7, #7
 548 000a 1A70     		strb	r2, [r3]
 333:.\Generated_Source\PSoC4/cyfitter_cfg.c **** 	uint32 regValue = CY_GET_XTND_REG32((void *)(CYREG_SAR_PUMP_CTRL));
 549              		.loc 1 333 0
 550 000c 0B4B     		ldr	r3, .L24
 551 000e 1B68     		ldr	r3, [r3]
 552 0010 FB60     		str	r3, [r7, #12]
 334:.\Generated_Source\PSoC4/cyfitter_cfg.c **** 	if (enabled != 0u)
 553              		.loc 1 334 0
 554 0012 FB1D     		add	r3, r7, #7
 555 0014 1B78     		ldrb	r3, [r3]
 556 0016 002B     		cmp	r3, #0
 557 0018 05D0     		beq	.L22
 335:.\Generated_Source\PSoC4/cyfitter_cfg.c **** 	{
 336:.\Generated_Source\PSoC4/cyfitter_cfg.c **** 		regValue |= 0x80000000u;
 558              		.loc 1 336 0
 559 001a FB68     		ldr	r3, [r7, #12]
 560 001c 8022     		mov	r2, #128
 561 001e 1206     		lsl	r2, r2, #24
 562 0020 1343     		orr	r3, r2
 563 0022 FB60     		str	r3, [r7, #12]
 564 0024 03E0     		b	.L23
 565              	.L22:
 337:.\Generated_Source\PSoC4/cyfitter_cfg.c **** 	}
 338:.\Generated_Source\PSoC4/cyfitter_cfg.c **** 	else
 339:.\Generated_Source\PSoC4/cyfitter_cfg.c **** 	{
 340:.\Generated_Source\PSoC4/cyfitter_cfg.c **** 		regValue &= ~0x80000000u;
 566              		.loc 1 340 0
ARM GAS  C:\Users\MANISH~1\AppData\Local\Temp\ccB4xhqf.s 			page 17


 567 0026 FB68     		ldr	r3, [r7, #12]
 568 0028 5B00     		lsl	r3, r3, #1
 569 002a 5B08     		lsr	r3, r3, #1
 570 002c FB60     		str	r3, [r7, #12]
 571              	.L23:
 341:.\Generated_Source\PSoC4/cyfitter_cfg.c **** 	}
 342:.\Generated_Source\PSoC4/cyfitter_cfg.c **** 	CY_SET_XTND_REG32((void *)(CYREG_SAR_PUMP_CTRL), regValue);
 572              		.loc 1 342 0
 573 002e 034B     		ldr	r3, .L24
 574 0030 FA68     		ldr	r2, [r7, #12]
 575 0032 1A60     		str	r2, [r3]
 343:.\Generated_Source\PSoC4/cyfitter_cfg.c **** }
 576              		.loc 1 343 0
 577 0034 BD46     		mov	sp, r7
 578 0036 04B0     		add	sp, sp, #16
 579              		@ sp needed
 580 0038 80BD     		pop	{r7, pc}
 581              	.L25:
 582 003a C046     		.align	2
 583              	.L24:
 584 003c 80033A40 		.word	1077543808
 585              		.cfi_endproc
 586              	.LFE9:
 587              		.size	SetAnalogRoutingPumps, .-SetAnalogRoutingPumps
 588              		.section	.psocinit
 589              		.align	2
 590              		.global	cyfitter_cfg
 591              		.code	16
 592              		.thumb_func
 593              		.type	cyfitter_cfg, %function
 594              	cyfitter_cfg:
 595              	.LFB10:
 344:.\Generated_Source\PSoC4/cyfitter_cfg.c **** 
 345:.\Generated_Source\PSoC4/cyfitter_cfg.c **** #define CY_AMUX_UNUSED CYREG_CM0_ROM_DWT
 346:.\Generated_Source\PSoC4/cyfitter_cfg.c **** 
 347:.\Generated_Source\PSoC4/cyfitter_cfg.c **** 
 348:.\Generated_Source\PSoC4/cyfitter_cfg.c **** /*******************************************************************************
 349:.\Generated_Source\PSoC4/cyfitter_cfg.c **** * Function Name: cyfitter_cfg
 350:.\Generated_Source\PSoC4/cyfitter_cfg.c **** ********************************************************************************
 351:.\Generated_Source\PSoC4/cyfitter_cfg.c **** * Summary:
 352:.\Generated_Source\PSoC4/cyfitter_cfg.c **** *  This function is called by the start-up code for the selected device. It
 353:.\Generated_Source\PSoC4/cyfitter_cfg.c **** *  performs all of the necessary device configuration based on the design
 354:.\Generated_Source\PSoC4/cyfitter_cfg.c **** *  settings.  This includes settings from the Design Wide Resources (DWR) such
 355:.\Generated_Source\PSoC4/cyfitter_cfg.c **** *  as Clocks and Pins as well as any component configuration that is necessary.
 356:.\Generated_Source\PSoC4/cyfitter_cfg.c **** *
 357:.\Generated_Source\PSoC4/cyfitter_cfg.c **** * Parameters:  
 358:.\Generated_Source\PSoC4/cyfitter_cfg.c **** *   void
 359:.\Generated_Source\PSoC4/cyfitter_cfg.c **** *
 360:.\Generated_Source\PSoC4/cyfitter_cfg.c **** * Return:
 361:.\Generated_Source\PSoC4/cyfitter_cfg.c **** *   void
 362:.\Generated_Source\PSoC4/cyfitter_cfg.c **** *
 363:.\Generated_Source\PSoC4/cyfitter_cfg.c **** *******************************************************************************/
 364:.\Generated_Source\PSoC4/cyfitter_cfg.c **** CY_CFG_SECTION
 365:.\Generated_Source\PSoC4/cyfitter_cfg.c **** void cyfitter_cfg(void)
 366:.\Generated_Source\PSoC4/cyfitter_cfg.c **** {
 596              		.loc 1 366 0
 597              		.cfi_startproc
ARM GAS  C:\Users\MANISH~1\AppData\Local\Temp\ccB4xhqf.s 			page 18


 598 017c 80B5     		push	{r7, lr}
 599              		.cfi_def_cfa_offset 8
 600              		.cfi_offset 7, -8
 601              		.cfi_offset 14, -4
 602 017e 82B0     		sub	sp, sp, #8
 603              		.cfi_def_cfa_offset 16
 604 0180 00AF     		add	r7, sp, #0
 605              		.cfi_def_cfa_register 7
 367:.\Generated_Source\PSoC4/cyfitter_cfg.c **** 	/* Disable interrupts by default. Let user enable if/when they want. */
 368:.\Generated_Source\PSoC4/cyfitter_cfg.c **** 	CyGlobalIntDisable;
 606              		.loc 1 368 0
 607              	@ 368 ".\Generated_Source\PSoC4\cyfitter_cfg.c" 1
 608 0182 72B6     		CPSID   i
 609              	@ 0 "" 2
 369:.\Generated_Source\PSoC4/cyfitter_cfg.c **** 
 370:.\Generated_Source\PSoC4/cyfitter_cfg.c **** 	CY_SET_XTND_REG32((void CYFAR *)(CYREG_BLE_BLESS_LL_DSM_CTRL), 0x00000000u);
 610              		.loc 1 370 0
 611              		.code	16
 612 0184 414B     		ldr	r3, .L29
 613 0186 0022     		mov	r2, #0
 614 0188 1A60     		str	r2, [r3]
 615              	.LBB3:
 371:.\Generated_Source\PSoC4/cyfitter_cfg.c **** 
 372:.\Generated_Source\PSoC4/cyfitter_cfg.c **** 	{
 373:.\Generated_Source\PSoC4/cyfitter_cfg.c **** 		static const uint32 CYCODE cy_cfg_addr_table[] = {
 374:.\Generated_Source\PSoC4/cyfitter_cfg.c **** 			0x400F4202u, /* Base address: 0x400F4200 Count: 2 */
 375:.\Generated_Source\PSoC4/cyfitter_cfg.c **** 			0x400F4303u, /* Base address: 0x400F4300 Count: 3 */
 376:.\Generated_Source\PSoC4/cyfitter_cfg.c **** 			0x400F6002u, /* Base address: 0x400F6000 Count: 2 */
 377:.\Generated_Source\PSoC4/cyfitter_cfg.c **** 		};
 378:.\Generated_Source\PSoC4/cyfitter_cfg.c **** 
 379:.\Generated_Source\PSoC4/cyfitter_cfg.c **** 		static const cy_cfg_addrvalue_t CYCODE cy_cfg_data_table[] = {
 380:.\Generated_Source\PSoC4/cyfitter_cfg.c **** 			{0x0Cu, 0x10u},
 381:.\Generated_Source\PSoC4/cyfitter_cfg.c **** 			{0xC2u, 0x01u},
 382:.\Generated_Source\PSoC4/cyfitter_cfg.c **** 			{0x58u, 0x10u},
 383:.\Generated_Source\PSoC4/cyfitter_cfg.c **** 			{0x98u, 0x10u},
 384:.\Generated_Source\PSoC4/cyfitter_cfg.c **** 			{0xD4u, 0x01u},
 385:.\Generated_Source\PSoC4/cyfitter_cfg.c **** 			{0x02u, 0x01u},
 386:.\Generated_Source\PSoC4/cyfitter_cfg.c **** 			{0x11u, 0x01u},
 387:.\Generated_Source\PSoC4/cyfitter_cfg.c **** 		};
 388:.\Generated_Source\PSoC4/cyfitter_cfg.c **** 
 389:.\Generated_Source\PSoC4/cyfitter_cfg.c **** 
 390:.\Generated_Source\PSoC4/cyfitter_cfg.c **** 
 391:.\Generated_Source\PSoC4/cyfitter_cfg.c **** 		CYPACKED typedef struct {
 392:.\Generated_Source\PSoC4/cyfitter_cfg.c **** 			void CYFAR *address;
 393:.\Generated_Source\PSoC4/cyfitter_cfg.c **** 			uint16 size;
 394:.\Generated_Source\PSoC4/cyfitter_cfg.c **** 		} CYPACKED_ATTR cfg_memset_t;
 395:.\Generated_Source\PSoC4/cyfitter_cfg.c **** 
 396:.\Generated_Source\PSoC4/cyfitter_cfg.c **** 		static const cfg_memset_t CYCODE cfg_memset_list [] = {
 397:.\Generated_Source\PSoC4/cyfitter_cfg.c **** 			/* address, size */
 398:.\Generated_Source\PSoC4/cyfitter_cfg.c **** 			{(void CYFAR *)(CYDEV_UDB_P0_U0_BASE), 1024u},
 399:.\Generated_Source\PSoC4/cyfitter_cfg.c **** 			{(void CYFAR *)(CYDEV_UDB_DSI0_BASE), 1024u},
 400:.\Generated_Source\PSoC4/cyfitter_cfg.c **** 		};
 401:.\Generated_Source\PSoC4/cyfitter_cfg.c **** 
 402:.\Generated_Source\PSoC4/cyfitter_cfg.c **** 		uint8 CYDATA i;
 403:.\Generated_Source\PSoC4/cyfitter_cfg.c **** 
 404:.\Generated_Source\PSoC4/cyfitter_cfg.c **** 		/* Zero out critical memory blocks before beginning configuration */
 405:.\Generated_Source\PSoC4/cyfitter_cfg.c **** 		for (i = 0u; i < (sizeof(cfg_memset_list)/sizeof(cfg_memset_list[0])); i++)
ARM GAS  C:\Users\MANISH~1\AppData\Local\Temp\ccB4xhqf.s 			page 19


 616              		.loc 1 405 0
 617 018a FB1D     		add	r3, r7, #7
 618 018c 0022     		mov	r2, #0
 619 018e 1A70     		strb	r2, [r3]
 620 0190 23E0     		b	.L27
 621              	.L28:
 622              	.LBB4:
 406:.\Generated_Source\PSoC4/cyfitter_cfg.c **** 		{
 407:.\Generated_Source\PSoC4/cyfitter_cfg.c **** 			const cfg_memset_t CYCODE * CYDATA ms = &cfg_memset_list[i];
 623              		.loc 1 407 0 discriminator 2
 624 0192 FB1D     		add	r3, r7, #7
 625 0194 1A78     		ldrb	r2, [r3]
 626 0196 131C     		mov	r3, r2
 627 0198 5B00     		lsl	r3, r3, #1
 628 019a 9B18     		add	r3, r3, r2
 629 019c 5B00     		lsl	r3, r3, #1
 630 019e 3C4A     		ldr	r2, .L29+4
 631 01a0 9B18     		add	r3, r3, r2
 632 01a2 3B60     		str	r3, [r7]
 408:.\Generated_Source\PSoC4/cyfitter_cfg.c **** 			CYMEMZERO(ms->address, (size_t)(uint32)(ms->size));
 633              		.loc 1 408 0 discriminator 2
 634 01a4 3B68     		ldr	r3, [r7]
 635 01a6 1A78     		ldrb	r2, [r3]
 636 01a8 5978     		ldrb	r1, [r3, #1]
 637 01aa 0902     		lsl	r1, r1, #8
 638 01ac 0A43     		orr	r2, r1
 639 01ae 9978     		ldrb	r1, [r3, #2]
 640 01b0 0904     		lsl	r1, r1, #16
 641 01b2 0A43     		orr	r2, r1
 642 01b4 DB78     		ldrb	r3, [r3, #3]
 643 01b6 1B06     		lsl	r3, r3, #24
 644 01b8 1343     		orr	r3, r2
 645 01ba 1A1C     		mov	r2, r3
 646 01bc 3B68     		ldr	r3, [r7]
 647 01be 1979     		ldrb	r1, [r3, #4]
 648 01c0 5B79     		ldrb	r3, [r3, #5]
 649 01c2 1B02     		lsl	r3, r3, #8
 650 01c4 0B43     		orr	r3, r1
 651 01c6 9BB2     		uxth	r3, r3
 652 01c8 101C     		mov	r0, r2
 653 01ca 191C     		mov	r1, r3
 654 01cc FFF7FEFF 		bl	CYMEMZERO
 655              	.LBE4:
 405:.\Generated_Source\PSoC4/cyfitter_cfg.c **** 		for (i = 0u; i < (sizeof(cfg_memset_list)/sizeof(cfg_memset_list[0])); i++)
 656              		.loc 1 405 0 discriminator 2
 657 01d0 FB1D     		add	r3, r7, #7
 658 01d2 1A78     		ldrb	r2, [r3]
 659 01d4 FB1D     		add	r3, r7, #7
 660 01d6 0132     		add	r2, r2, #1
 661 01d8 1A70     		strb	r2, [r3]
 662              	.L27:
 405:.\Generated_Source\PSoC4/cyfitter_cfg.c **** 		for (i = 0u; i < (sizeof(cfg_memset_list)/sizeof(cfg_memset_list[0])); i++)
 663              		.loc 1 405 0 is_stmt 0 discriminator 1
 664 01da FB1D     		add	r3, r7, #7
 665 01dc 1B78     		ldrb	r3, [r3]
 666 01de 012B     		cmp	r3, #1
 667 01e0 D7D9     		bls	.L28
ARM GAS  C:\Users\MANISH~1\AppData\Local\Temp\ccB4xhqf.s 			page 20


 409:.\Generated_Source\PSoC4/cyfitter_cfg.c **** 		}
 410:.\Generated_Source\PSoC4/cyfitter_cfg.c **** 
 411:.\Generated_Source\PSoC4/cyfitter_cfg.c **** 		cfg_write_bytes32(cy_cfg_addr_table, cy_cfg_data_table);
 668              		.loc 1 411 0 is_stmt 1
 669 01e2 2C4A     		ldr	r2, .L29+8
 670 01e4 2C4B     		ldr	r3, .L29+12
 671 01e6 101C     		mov	r0, r2
 672 01e8 191C     		mov	r1, r3
 673 01ea FFF7FEFF 		bl	cfg_write_bytes32
 412:.\Generated_Source\PSoC4/cyfitter_cfg.c **** 
 413:.\Generated_Source\PSoC4/cyfitter_cfg.c **** 		/* HSIOM Starting address: CYDEV_HSIOM_BASE */
 414:.\Generated_Source\PSoC4/cyfitter_cfg.c **** 		CY_SET_XTND_REG32((void CYFAR *)(CYREG_HSIOM_PORT_SEL3), 0x00000003u);
 674              		.loc 1 414 0
 675 01ee 2B4B     		ldr	r3, .L29+16
 676 01f0 0322     		mov	r2, #3
 677 01f2 1A60     		str	r2, [r3]
 415:.\Generated_Source\PSoC4/cyfitter_cfg.c **** 
 416:.\Generated_Source\PSoC4/cyfitter_cfg.c **** 		/* FORCED_HSIOM Starting address: CYDEV_HSIOM_PORT_SEL0 */
 417:.\Generated_Source\PSoC4/cyfitter_cfg.c **** 		CY_SET_XTND_REG32((void CYFAR *)(CYREG_HSIOM_PORT_SEL0), 0x00000000u);
 678              		.loc 1 417 0
 679 01f4 2A4B     		ldr	r3, .L29+20
 680 01f6 0022     		mov	r2, #0
 681 01f8 1A60     		str	r2, [r3]
 418:.\Generated_Source\PSoC4/cyfitter_cfg.c **** 
 419:.\Generated_Source\PSoC4/cyfitter_cfg.c **** 		/* IOPINS0_0 Starting address: CYDEV_GPIO_PRT0_PC */
 420:.\Generated_Source\PSoC4/cyfitter_cfg.c **** 		CY_SET_XTND_REG32((void CYFAR *)(CYREG_GPIO_PRT0_PC), 0x00000000u);
 682              		.loc 1 420 0
 683 01fa 2A4B     		ldr	r3, .L29+24
 684 01fc 0022     		mov	r2, #0
 685 01fe 1A60     		str	r2, [r3]
 421:.\Generated_Source\PSoC4/cyfitter_cfg.c **** 
 422:.\Generated_Source\PSoC4/cyfitter_cfg.c **** 		/* IOPINS0_2 Starting address: CYDEV_GPIO_PRT2_DR */
 423:.\Generated_Source\PSoC4/cyfitter_cfg.c **** 		CY_SET_XTND_REG32((void CYFAR *)(CYREG_GPIO_PRT2_DR), 0x00000081u);
 686              		.loc 1 423 0
 687 0200 294B     		ldr	r3, .L29+28
 688 0202 8122     		mov	r2, #129
 689 0204 1A60     		str	r2, [r3]
 424:.\Generated_Source\PSoC4/cyfitter_cfg.c **** 		CY_SET_XTND_REG32((void CYFAR *)(CYREG_GPIO_PRT2_PC), 0x00400000u);
 690              		.loc 1 424 0
 691 0206 294B     		ldr	r3, .L29+32
 692 0208 8022     		mov	r2, #128
 693 020a D203     		lsl	r2, r2, #15
 694 020c 1A60     		str	r2, [r3]
 425:.\Generated_Source\PSoC4/cyfitter_cfg.c **** 		CY_SET_XTND_REG32((void CYFAR *)(CYREG_GPIO_PRT2_INTR_CFG), 0x00008000u);
 695              		.loc 1 425 0
 696 020e 284B     		ldr	r3, .L29+36
 697 0210 8022     		mov	r2, #128
 698 0212 1202     		lsl	r2, r2, #8
 699 0214 1A60     		str	r2, [r3]
 426:.\Generated_Source\PSoC4/cyfitter_cfg.c **** 		CY_SET_XTND_REG32((void CYFAR *)(CYREG_GPIO_PRT2_PC2), 0x00000001u);
 700              		.loc 1 426 0
 701 0216 274B     		ldr	r3, .L29+40
 702 0218 0122     		mov	r2, #1
 703 021a 1A60     		str	r2, [r3]
 427:.\Generated_Source\PSoC4/cyfitter_cfg.c **** 
 428:.\Generated_Source\PSoC4/cyfitter_cfg.c **** 		/* IOPINS0_3 Starting address: CYDEV_GPIO_PRT3_DR */
 429:.\Generated_Source\PSoC4/cyfitter_cfg.c **** 		CY_SET_XTND_REG32((void CYFAR *)(CYREG_GPIO_PRT3_DR), 0x000000C1u);
ARM GAS  C:\Users\MANISH~1\AppData\Local\Temp\ccB4xhqf.s 			page 21


 704              		.loc 1 429 0
 705 021c 264B     		ldr	r3, .L29+44
 706 021e C122     		mov	r2, #193
 707 0220 1A60     		str	r2, [r3]
 430:.\Generated_Source\PSoC4/cyfitter_cfg.c **** 		CY_SET_XTND_REG32((void CYFAR *)(CYREG_GPIO_PRT3_PC), 0x00D80006u);
 708              		.loc 1 430 0
 709 0222 264B     		ldr	r3, .L29+48
 710 0224 264A     		ldr	r2, .L29+52
 711 0226 1A60     		str	r2, [r3]
 431:.\Generated_Source\PSoC4/cyfitter_cfg.c **** 
 432:.\Generated_Source\PSoC4/cyfitter_cfg.c **** 		/* UDB_PA_2 Starting address: CYDEV_UDB_PA2_BASE */
 433:.\Generated_Source\PSoC4/cyfitter_cfg.c **** 		CY_SET_XTND_REG32((void CYFAR *)(CYDEV_UDB_PA2_BASE), 0x00990004u);
 712              		.loc 1 433 0
 713 0228 264B     		ldr	r3, .L29+56
 714 022a 274A     		ldr	r2, .L29+60
 715 022c 1A60     		str	r2, [r3]
 434:.\Generated_Source\PSoC4/cyfitter_cfg.c **** 		CY_SET_XTND_REG32((void CYFAR *)(CYREG_UDB_PA2_CFG4), 0x80000000u);
 716              		.loc 1 434 0
 717 022e 274B     		ldr	r3, .L29+64
 718 0230 8022     		mov	r2, #128
 719 0232 1206     		lsl	r2, r2, #24
 720 0234 1A60     		str	r2, [r3]
 435:.\Generated_Source\PSoC4/cyfitter_cfg.c **** 
 436:.\Generated_Source\PSoC4/cyfitter_cfg.c **** 		/* UDB_PA_3 Starting address: CYDEV_UDB_PA3_BASE */
 437:.\Generated_Source\PSoC4/cyfitter_cfg.c **** 		CY_SET_XTND_REG32((void CYFAR *)(CYDEV_UDB_PA3_BASE), 0x00990000u);
 721              		.loc 1 437 0
 722 0236 264B     		ldr	r3, .L29+68
 723 0238 9922     		mov	r2, #153
 724 023a 1204     		lsl	r2, r2, #16
 725 023c 1A60     		str	r2, [r3]
 438:.\Generated_Source\PSoC4/cyfitter_cfg.c **** 		CY_SET_XTND_REG32((void CYFAR *)(CYREG_UDB_PA3_CFG8), 0x00020000u);
 726              		.loc 1 438 0
 727 023e 254B     		ldr	r3, .L29+72
 728 0240 8022     		mov	r2, #128
 729 0242 9202     		lsl	r2, r2, #10
 730 0244 1A60     		str	r2, [r3]
 439:.\Generated_Source\PSoC4/cyfitter_cfg.c **** 
 440:.\Generated_Source\PSoC4/cyfitter_cfg.c **** 		/* Enable digital routing */
 441:.\Generated_Source\PSoC4/cyfitter_cfg.c **** 		CY_SET_XTND_REG8((void *)CYREG_UDB_UDBIF_BANK_CTL, CY_GET_XTND_REG8((void *)CYREG_UDB_UDBIF_BANK_
 731              		.loc 1 441 0
 732 0246 244B     		ldr	r3, .L29+76
 733 0248 234A     		ldr	r2, .L29+76
 734 024a 1278     		ldrb	r2, [r2]
 735 024c D2B2     		uxtb	r2, r2
 736 024e 0221     		mov	r1, #2
 737 0250 0A43     		orr	r2, r1
 738 0252 D2B2     		uxtb	r2, r2
 739 0254 1A70     		strb	r2, [r3]
 442:.\Generated_Source\PSoC4/cyfitter_cfg.c **** 
 443:.\Generated_Source\PSoC4/cyfitter_cfg.c **** 		/* Enable UDB array */
 444:.\Generated_Source\PSoC4/cyfitter_cfg.c **** 		CY_SET_XTND_REG8((void *)CYREG_UDB_UDBIF_WAIT_CFG, (uint8)((CY_GET_XTND_REG8((void *)CYREG_UDB_UD
 740              		.loc 1 444 0
 741 0256 214B     		ldr	r3, .L29+80
 742 0258 204A     		ldr	r2, .L29+80
 743 025a 1278     		ldrb	r2, [r2]
 744 025c D2B2     		uxtb	r2, r2
 745 025e 3C21     		mov	r1, #60
ARM GAS  C:\Users\MANISH~1\AppData\Local\Temp\ccB4xhqf.s 			page 22


 746 0260 8A43     		bic	r2, r1
 747 0262 D2B2     		uxtb	r2, r2
 748 0264 1421     		mov	r1, #20
 749 0266 0A43     		orr	r2, r1
 750 0268 D2B2     		uxtb	r2, r2
 751 026a 1A70     		strb	r2, [r3]
 445:.\Generated_Source\PSoC4/cyfitter_cfg.c **** 		CY_SET_XTND_REG8((void *)CYREG_UDB_UDBIF_BANK_CTL, (uint8)(CY_GET_XTND_REG8((void *)CYREG_UDB_UDB
 752              		.loc 1 445 0
 753 026c 1A4B     		ldr	r3, .L29+76
 754 026e 1A4A     		ldr	r2, .L29+76
 755 0270 1278     		ldrb	r2, [r2]
 756 0272 D2B2     		uxtb	r2, r2
 757 0274 1621     		mov	r1, #22
 758 0276 0A43     		orr	r2, r1
 759 0278 D2B2     		uxtb	r2, r2
 760 027a 1A70     		strb	r2, [r3]
 761              	.LBE3:
 446:.\Generated_Source\PSoC4/cyfitter_cfg.c **** 	}
 447:.\Generated_Source\PSoC4/cyfitter_cfg.c **** 
 448:.\Generated_Source\PSoC4/cyfitter_cfg.c **** 	/* Setup clocks based on selections from Clock DWR */
 449:.\Generated_Source\PSoC4/cyfitter_cfg.c **** 	ClockSetup();
 762              		.loc 1 449 0
 763 027c FFF712FF 		bl	ClockSetup
 450:.\Generated_Source\PSoC4/cyfitter_cfg.c **** 
 451:.\Generated_Source\PSoC4/cyfitter_cfg.c **** 	/* Perform basic analog initialization to defaults */
 452:.\Generated_Source\PSoC4/cyfitter_cfg.c **** 	AnalogSetDefault();
 764              		.loc 1 452 0
 765 0280 FFF7FEFF 		bl	AnalogSetDefault
 453:.\Generated_Source\PSoC4/cyfitter_cfg.c **** 
 454:.\Generated_Source\PSoC4/cyfitter_cfg.c **** }
 766              		.loc 1 454 0
 767 0284 BD46     		mov	sp, r7
 768 0286 02B0     		add	sp, sp, #8
 769              		@ sp needed
 770 0288 80BD     		pop	{r7, pc}
 771              	.L30:
 772 028a C046     		.align	2
 773              	.L29:
 774 028c 6CF02E40 		.word	1076818028
 775 0290 04000000 		.word	cfg_memset_list.4771
 776 0294 10000000 		.word	cy_cfg_addr_table.4765
 777 0298 1C000000 		.word	cy_cfg_data_table.4766
 778 029c 00030240 		.word	1073873664
 779 02a0 00000240 		.word	1073872896
 780 02a4 08000440 		.word	1074003976
 781 02a8 00020440 		.word	1074004480
 782 02ac 08020440 		.word	1074004488
 783 02b0 0C020440 		.word	1074004492
 784 02b4 18020440 		.word	1074004504
 785 02b8 00030440 		.word	1074004736
 786 02bc 08030440 		.word	1074004744
 787 02c0 0600D800 		.word	14155782
 788 02c4 20500F40 		.word	1074745376
 789 02c8 04009900 		.word	10027012
 790 02cc 24500F40 		.word	1074745380
 791 02d0 30500F40 		.word	1074745392
 792 02d4 38500F40 		.word	1074745400
ARM GAS  C:\Users\MANISH~1\AppData\Local\Temp\ccB4xhqf.s 			page 23


 793 02d8 00700F40 		.word	1074753536
 794 02dc 01700F40 		.word	1074753537
 795              		.cfi_endproc
 796              	.LFE10:
 797              		.size	cyfitter_cfg, .-cyfitter_cfg
 798              		.data
 799              		.align	2
 800              		.type	imo_trim_table.4740, %object
 801              		.size	imo_trim_table.4740, 4
 802              	imo_trim_table.4740:
 803 0000 C0F1FF0F 		.word	268431808
 804              		.section	.rodata
 805              		.align	2
 806              		.type	IMO_TRIM_FREQ_TABLE_ENTRIES.4741, %object
 807              		.size	IMO_TRIM_FREQ_TABLE_ENTRIES.4741, 4
 808              	IMO_TRIM_FREQ_TABLE_ENTRIES.4741:
 809 0000 04000000 		.word	4
 810              		.align	2
 811              		.type	cfg_memset_list.4771, %object
 812              		.size	cfg_memset_list.4771, 12
 813              	cfg_memset_list.4771:
 814 0004 00300F40 		.word	1074737152
 815 0008 0004     		.short	1024
 816 000a 00400F40 		.4byte	1074741248
 817 000e 0004     		.short	1024
 818              		.align	2
 819              		.type	cy_cfg_addr_table.4765, %object
 820              		.size	cy_cfg_addr_table.4765, 12
 821              	cy_cfg_addr_table.4765:
 822 0010 02420F40 		.word	1074741762
 823 0014 03430F40 		.word	1074742019
 824 0018 02600F40 		.word	1074749442
 825              		.align	2
 826              		.type	cy_cfg_data_table.4766, %object
 827              		.size	cy_cfg_data_table.4766, 14
 828              	cy_cfg_data_table.4766:
 829 001c 0C       		.byte	12
 830 001d 10       		.byte	16
 831 001e C2       		.byte	-62
 832 001f 01       		.byte	1
 833 0020 58       		.byte	88
 834 0021 10       		.byte	16
 835 0022 98       		.byte	-104
 836 0023 10       		.byte	16
 837 0024 D4       		.byte	-44
 838 0025 01       		.byte	1
 839 0026 02       		.byte	2
 840 0027 01       		.byte	1
 841 0028 11       		.byte	17
 842 0029 01       		.byte	1
 843 002a 0000     		.text
 844              	.Letext0:
 845              		.file 2 "c:\\program files (x86)\\cypress\\psoc creator\\3.1\\psoc creator\\import\\gnu_cs\\arm\\4
 846              		.file 3 ".\\Generated_Source\\PSoC4/cytypes.h"
 847              		.section	.debug_info,"",%progbits
 848              	.Ldebug_info0:
 849 0000 73040000 		.4byte	0x473
ARM GAS  C:\Users\MANISH~1\AppData\Local\Temp\ccB4xhqf.s 			page 24


 850 0004 0400     		.2byte	0x4
 851 0006 00000000 		.4byte	.Ldebug_abbrev0
 852 000a 04       		.byte	0x4
 853 000b 01       		.uleb128 0x1
 854 000c 5A020000 		.4byte	.LASF57
 855 0010 01       		.byte	0x1
 856 0011 2C020000 		.4byte	.LASF58
 857 0015 40000000 		.4byte	.LASF59
 858 0019 00000000 		.4byte	.Ldebug_ranges0+0
 859 001d 00000000 		.4byte	0
 860 0021 00000000 		.4byte	.Ldebug_line0
 861 0025 02       		.uleb128 0x2
 862 0026 04       		.byte	0x4
 863 0027 05       		.byte	0x5
 864 0028 696E7400 		.ascii	"int\000"
 865 002c 03       		.uleb128 0x3
 866 002d 10000000 		.4byte	.LASF11
 867 0031 02       		.byte	0x2
 868 0032 D4       		.byte	0xd4
 869 0033 37000000 		.4byte	0x37
 870 0037 04       		.uleb128 0x4
 871 0038 04       		.byte	0x4
 872 0039 07       		.byte	0x7
 873 003a 27010000 		.4byte	.LASF0
 874 003e 04       		.uleb128 0x4
 875 003f 01       		.byte	0x1
 876 0040 06       		.byte	0x6
 877 0041 C9000000 		.4byte	.LASF1
 878 0045 04       		.uleb128 0x4
 879 0046 01       		.byte	0x1
 880 0047 08       		.byte	0x8
 881 0048 DB020000 		.4byte	.LASF2
 882 004c 04       		.uleb128 0x4
 883 004d 02       		.byte	0x2
 884 004e 05       		.byte	0x5
 885 004f EF020000 		.4byte	.LASF3
 886 0053 04       		.uleb128 0x4
 887 0054 02       		.byte	0x2
 888 0055 07       		.byte	0x7
 889 0056 76010000 		.4byte	.LASF4
 890 005a 04       		.uleb128 0x4
 891 005b 04       		.byte	0x4
 892 005c 05       		.byte	0x5
 893 005d F5000000 		.4byte	.LASF5
 894 0061 04       		.uleb128 0x4
 895 0062 04       		.byte	0x4
 896 0063 07       		.byte	0x7
 897 0064 4D010000 		.4byte	.LASF6
 898 0068 04       		.uleb128 0x4
 899 0069 08       		.byte	0x8
 900 006a 05       		.byte	0x5
 901 006b BB000000 		.4byte	.LASF7
 902 006f 04       		.uleb128 0x4
 903 0070 08       		.byte	0x8
 904 0071 07       		.byte	0x7
 905 0072 29000000 		.4byte	.LASF8
 906 0076 04       		.uleb128 0x4
ARM GAS  C:\Users\MANISH~1\AppData\Local\Temp\ccB4xhqf.s 			page 25


 907 0077 04       		.byte	0x4
 908 0078 07       		.byte	0x7
 909 0079 BD010000 		.4byte	.LASF9
 910 007d 05       		.uleb128 0x5
 911 007e 04       		.byte	0x4
 912 007f 04       		.uleb128 0x4
 913 0080 01       		.byte	0x1
 914 0081 08       		.byte	0x8
 915 0082 0C030000 		.4byte	.LASF10
 916 0086 03       		.uleb128 0x3
 917 0087 FE000000 		.4byte	.LASF12
 918 008b 03       		.byte	0x3
 919 008c A1       		.byte	0xa1
 920 008d 45000000 		.4byte	0x45
 921 0091 03       		.uleb128 0x3
 922 0092 00000000 		.4byte	.LASF13
 923 0096 03       		.byte	0x3
 924 0097 A2       		.byte	0xa2
 925 0098 53000000 		.4byte	0x53
 926 009c 03       		.uleb128 0x3
 927 009d 0B010000 		.4byte	.LASF14
 928 00a1 03       		.byte	0x3
 929 00a2 A3       		.byte	0xa3
 930 00a3 61000000 		.4byte	0x61
 931 00a7 03       		.uleb128 0x3
 932 00a8 E4000000 		.4byte	.LASF15
 933 00ac 03       		.byte	0x3
 934 00ad A6       		.byte	0xa6
 935 00ae 5A000000 		.4byte	0x5a
 936 00b2 04       		.uleb128 0x4
 937 00b3 04       		.byte	0x4
 938 00b4 04       		.byte	0x4
 939 00b5 54020000 		.4byte	.LASF16
 940 00b9 04       		.uleb128 0x4
 941 00ba 08       		.byte	0x8
 942 00bb 04       		.byte	0x4
 943 00bc 04010000 		.4byte	.LASF17
 944 00c0 06       		.uleb128 0x6
 945 00c1 D6020000 		.4byte	.LASF18
 946 00c5 03       		.byte	0x3
 947 00c6 4B01     		.2byte	0x14b
 948 00c8 CC000000 		.4byte	0xcc
 949 00cc 07       		.uleb128 0x7
 950 00cd 86000000 		.4byte	0x86
 951 00d1 06       		.uleb128 0x6
 952 00d2 9F010000 		.4byte	.LASF19
 953 00d6 03       		.byte	0x3
 954 00d7 4D01     		.2byte	0x14d
 955 00d9 DD000000 		.4byte	0xdd
 956 00dd 07       		.uleb128 0x7
 957 00de 9C000000 		.4byte	0x9c
 958 00e2 08       		.uleb128 0x8
 959 00e3 02       		.byte	0x2
 960 00e4 01       		.byte	0x1
 961 00e5 7B       		.byte	0x7b
 962 00e6 03010000 		.4byte	0x103
 963 00ea 09       		.uleb128 0x9
ARM GAS  C:\Users\MANISH~1\AppData\Local\Temp\ccB4xhqf.s 			page 26


 964 00eb 39030000 		.4byte	.LASF20
 965 00ef 01       		.byte	0x1
 966 00f0 7D       		.byte	0x7d
 967 00f1 86000000 		.4byte	0x86
 968 00f5 00       		.byte	0
 969 00f6 09       		.uleb128 0x9
 970 00f7 21010000 		.4byte	.LASF21
 971 00fb 01       		.byte	0x1
 972 00fc 7E       		.byte	0x7e
 973 00fd 86000000 		.4byte	0x86
 974 0101 01       		.byte	0x1
 975 0102 00       		.byte	0
 976 0103 03       		.uleb128 0x3
 977 0104 F9020000 		.4byte	.LASF22
 978 0108 01       		.byte	0x1
 979 0109 7F       		.byte	0x7f
 980 010a E2000000 		.4byte	0xe2
 981 010e 0A       		.uleb128 0xa
 982 010f DA000000 		.4byte	.LASF23
 983 0113 01       		.byte	0x1
 984 0114 39       		.byte	0x39
 985 0115 00000000 		.4byte	.LFB2
 986 0119 1E000000 		.4byte	.LFE2-.LFB2
 987 011d 01       		.uleb128 0x1
 988 011e 9C       		.byte	0x9c
 989 011f 3C010000 		.4byte	0x13c
 990 0123 0B       		.uleb128 0xb
 991 0124 7300     		.ascii	"s\000"
 992 0126 01       		.byte	0x1
 993 0127 39       		.byte	0x39
 994 0128 7D000000 		.4byte	0x7d
 995 012c 02       		.uleb128 0x2
 996 012d 91       		.byte	0x91
 997 012e 74       		.sleb128 -12
 998 012f 0B       		.uleb128 0xb
 999 0130 6E00     		.ascii	"n\000"
 1000 0132 01       		.byte	0x1
 1001 0133 39       		.byte	0x39
 1002 0134 2C000000 		.4byte	0x2c
 1003 0138 02       		.uleb128 0x2
 1004 0139 91       		.byte	0x91
 1005 013a 70       		.sleb128 -16
 1006 013b 00       		.byte	0
 1007 013c 0A       		.uleb128 0xa
 1008 013d 48030000 		.4byte	.LASF24
 1009 0141 01       		.byte	0x1
 1010 0142 40       		.byte	0x40
 1011 0143 00000000 		.4byte	.LFB3
 1012 0147 22000000 		.4byte	.LFE3-.LFB3
 1013 014b 01       		.uleb128 0x1
 1014 014c 9C       		.byte	0x9c
 1015 014d 7A010000 		.4byte	0x17a
 1016 0151 0C       		.uleb128 0xc
 1017 0152 27020000 		.4byte	.LASF25
 1018 0156 01       		.byte	0x1
 1019 0157 40       		.byte	0x40
 1020 0158 7D000000 		.4byte	0x7d
ARM GAS  C:\Users\MANISH~1\AppData\Local\Temp\ccB4xhqf.s 			page 27


 1021 015c 02       		.uleb128 0x2
 1022 015d 91       		.byte	0x91
 1023 015e 74       		.sleb128 -12
 1024 015f 0B       		.uleb128 0xb
 1025 0160 73726300 		.ascii	"src\000"
 1026 0164 01       		.byte	0x1
 1027 0165 40       		.byte	0x40
 1028 0166 7A010000 		.4byte	0x17a
 1029 016a 02       		.uleb128 0x2
 1030 016b 91       		.byte	0x91
 1031 016c 70       		.sleb128 -16
 1032 016d 0B       		.uleb128 0xb
 1033 016e 6E00     		.ascii	"n\000"
 1034 0170 01       		.byte	0x1
 1035 0171 40       		.byte	0x40
 1036 0172 2C000000 		.4byte	0x2c
 1037 0176 02       		.uleb128 0x2
 1038 0177 91       		.byte	0x91
 1039 0178 6C       		.sleb128 -20
 1040 0179 00       		.byte	0
 1041 017a 0D       		.uleb128 0xd
 1042 017b 04       		.byte	0x4
 1043 017c 80010000 		.4byte	0x180
 1044 0180 0E       		.uleb128 0xe
 1045 0181 0A       		.uleb128 0xa
 1046 0182 A5010000 		.4byte	.LASF26
 1047 0186 01       		.byte	0x1
 1048 0187 47       		.byte	0x47
 1049 0188 00000000 		.4byte	.LFB4
 1050 018c 22000000 		.4byte	.LFE4-.LFB4
 1051 0190 01       		.uleb128 0x1
 1052 0191 9C       		.byte	0x9c
 1053 0192 BF010000 		.4byte	0x1bf
 1054 0196 0C       		.uleb128 0xc
 1055 0197 27020000 		.4byte	.LASF25
 1056 019b 01       		.byte	0x1
 1057 019c 47       		.byte	0x47
 1058 019d 7D000000 		.4byte	0x7d
 1059 01a1 02       		.uleb128 0x2
 1060 01a2 91       		.byte	0x91
 1061 01a3 74       		.sleb128 -12
 1062 01a4 0B       		.uleb128 0xb
 1063 01a5 73726300 		.ascii	"src\000"
 1064 01a9 01       		.byte	0x1
 1065 01aa 47       		.byte	0x47
 1066 01ab 7A010000 		.4byte	0x17a
 1067 01af 02       		.uleb128 0x2
 1068 01b0 91       		.byte	0x91
 1069 01b1 70       		.sleb128 -16
 1070 01b2 0B       		.uleb128 0xb
 1071 01b3 6E00     		.ascii	"n\000"
 1072 01b5 01       		.byte	0x1
 1073 01b6 47       		.byte	0x47
 1074 01b7 2C000000 		.4byte	0x2c
 1075 01bb 02       		.uleb128 0x2
 1076 01bc 91       		.byte	0x91
 1077 01bd 6C       		.sleb128 -20
ARM GAS  C:\Users\MANISH~1\AppData\Local\Temp\ccB4xhqf.s 			page 28


 1078 01be 00       		.byte	0
 1079 01bf 0F       		.uleb128 0xf
 1080 01c0 5F010000 		.4byte	.LASF27
 1081 01c4 01       		.byte	0x1
 1082 01c5 92       		.byte	0x92
 1083 01c6 00000000 		.4byte	.LFB5
 1084 01ca 7E000000 		.4byte	.LFE5-.LFB5
 1085 01ce 01       		.uleb128 0x1
 1086 01cf 9C       		.byte	0x9c
 1087 01d0 2F020000 		.4byte	0x22f
 1088 01d4 0C       		.uleb128 0xc
 1089 01d5 8D000000 		.4byte	.LASF28
 1090 01d9 01       		.byte	0x1
 1091 01da 92       		.byte	0x92
 1092 01db 2F020000 		.4byte	0x22f
 1093 01df 02       		.uleb128 0x2
 1094 01e0 91       		.byte	0x91
 1095 01e1 64       		.sleb128 -28
 1096 01e2 0C       		.uleb128 0xc
 1097 01e3 1E000000 		.4byte	.LASF29
 1098 01e7 01       		.byte	0x1
 1099 01e8 92       		.byte	0x92
 1100 01e9 3A020000 		.4byte	0x23a
 1101 01ed 02       		.uleb128 0x2
 1102 01ee 91       		.byte	0x91
 1103 01ef 60       		.sleb128 -32
 1104 01f0 10       		.uleb128 0x10
 1105 01f1 6900     		.ascii	"i\000"
 1106 01f3 01       		.byte	0x1
 1107 01f4 95       		.byte	0x95
 1108 01f5 9C000000 		.4byte	0x9c
 1109 01f9 02       		.uleb128 0x2
 1110 01fa 91       		.byte	0x91
 1111 01fb 74       		.sleb128 -12
 1112 01fc 10       		.uleb128 0x10
 1113 01fd 6A00     		.ascii	"j\000"
 1114 01ff 01       		.byte	0x1
 1115 0200 95       		.byte	0x95
 1116 0201 9C000000 		.4byte	0x9c
 1117 0205 02       		.uleb128 0x2
 1118 0206 91       		.byte	0x91
 1119 0207 70       		.sleb128 -16
 1120 0208 11       		.uleb128 0x11
 1121 0209 14000000 		.4byte	.LBB2
 1122 020d 58000000 		.4byte	.LBE2-.LBB2
 1123 0211 12       		.uleb128 0x12
 1124 0212 07000000 		.4byte	.LASF30
 1125 0216 01       		.byte	0x1
 1126 0217 98       		.byte	0x98
 1127 0218 9C000000 		.4byte	0x9c
 1128 021c 02       		.uleb128 0x2
 1129 021d 91       		.byte	0x91
 1130 021e 68       		.sleb128 -24
 1131 021f 12       		.uleb128 0x12
 1132 0220 12010000 		.4byte	.LASF31
 1133 0224 01       		.byte	0x1
 1134 0225 99       		.byte	0x99
ARM GAS  C:\Users\MANISH~1\AppData\Local\Temp\ccB4xhqf.s 			page 29


 1135 0226 86000000 		.4byte	0x86
 1136 022a 02       		.uleb128 0x2
 1137 022b 91       		.byte	0x91
 1138 022c 6F       		.sleb128 -17
 1139 022d 00       		.byte	0
 1140 022e 00       		.byte	0
 1141 022f 0D       		.uleb128 0xd
 1142 0230 04       		.byte	0x4
 1143 0231 35020000 		.4byte	0x235
 1144 0235 13       		.uleb128 0x13
 1145 0236 9C000000 		.4byte	0x9c
 1146 023a 0D       		.uleb128 0xd
 1147 023b 04       		.byte	0x4
 1148 023c 40020000 		.4byte	0x240
 1149 0240 13       		.uleb128 0x13
 1150 0241 03010000 		.4byte	0x103
 1151 0245 0F       		.uleb128 0xf
 1152 0246 6A030000 		.4byte	.LASF32
 1153 024a 01       		.byte	0x1
 1154 024b B5       		.byte	0xb5
 1155 024c 00000000 		.4byte	.LFB6
 1156 0250 A4000000 		.4byte	.LFE6-.LFB6
 1157 0254 01       		.uleb128 0x1
 1158 0255 9C       		.byte	0x9c
 1159 0256 28030000 		.4byte	0x328
 1160 025a 0C       		.uleb128 0xc
 1161 025b 45010000 		.4byte	.LASF33
 1162 025f 01       		.byte	0x1
 1163 0260 B5       		.byte	0xb5
 1164 0261 86000000 		.4byte	0x86
 1165 0265 02       		.uleb128 0x2
 1166 0266 91       		.byte	0x91
 1167 0267 6F       		.sleb128 -17
 1168 0268 08       		.uleb128 0x8
 1169 0269 03       		.byte	0x3
 1170 026a 01       		.byte	0x1
 1171 026b B7       		.byte	0xb7
 1172 026c 95020000 		.4byte	0x295
 1173 0270 09       		.uleb128 0x9
 1174 0271 D5000000 		.4byte	.LASF34
 1175 0275 01       		.byte	0x1
 1176 0276 B8       		.byte	0xb8
 1177 0277 86000000 		.4byte	0x86
 1178 027b 00       		.byte	0
 1179 027c 09       		.uleb128 0x9
 1180 027d 89010000 		.4byte	.LASF35
 1181 0281 01       		.byte	0x1
 1182 0282 B9       		.byte	0xb9
 1183 0283 86000000 		.4byte	0x86
 1184 0287 01       		.byte	0x1
 1185 0288 09       		.uleb128 0x9
 1186 0289 E9020000 		.4byte	.LASF36
 1187 028d 01       		.byte	0x1
 1188 028e BA       		.byte	0xba
 1189 028f 86000000 		.4byte	0x86
 1190 0293 02       		.byte	0x2
 1191 0294 00       		.byte	0
ARM GAS  C:\Users\MANISH~1\AppData\Local\Temp\ccB4xhqf.s 			page 30


 1192 0295 03       		.uleb128 0x3
 1193 0296 34010000 		.4byte	.LASF37
 1194 029a 01       		.byte	0x1
 1195 029b BB       		.byte	0xbb
 1196 029c 68020000 		.4byte	0x268
 1197 02a0 08       		.uleb128 0x8
 1198 02a1 0C       		.byte	0xc
 1199 02a2 01       		.byte	0x1
 1200 02a3 BD       		.byte	0xbd
 1201 02a4 C5020000 		.4byte	0x2c5
 1202 02a8 14       		.uleb128 0x14
 1203 02a9 95020000 		.4byte	0x295
 1204 02ad B8020000 		.4byte	0x2b8
 1205 02b1 15       		.uleb128 0x15
 1206 02b2 76000000 		.4byte	0x76
 1207 02b6 03       		.byte	0x3
 1208 02b7 00       		.byte	0
 1209 02b8 09       		.uleb128 0x9
 1210 02b9 B5010000 		.4byte	.LASF38
 1211 02bd 01       		.byte	0x1
 1212 02be BE       		.byte	0xbe
 1213 02bf A8020000 		.4byte	0x2a8
 1214 02c3 00       		.byte	0
 1215 02c4 00       		.byte	0
 1216 02c5 03       		.uleb128 0x3
 1217 02c6 DD010000 		.4byte	.LASF39
 1218 02ca 01       		.byte	0x1
 1219 02cb BF       		.byte	0xbf
 1220 02cc A0020000 		.4byte	0x2a0
 1221 02d0 12       		.uleb128 0x12
 1222 02d1 C6010000 		.4byte	.LASF40
 1223 02d5 01       		.byte	0x1
 1224 02d6 C1       		.byte	0xc1
 1225 02d7 E1020000 		.4byte	0x2e1
 1226 02db 05       		.uleb128 0x5
 1227 02dc 03       		.byte	0x3
 1228 02dd 00000000 		.4byte	imo_trim_table.4740
 1229 02e1 0D       		.uleb128 0xd
 1230 02e2 04       		.byte	0x4
 1231 02e3 E7020000 		.4byte	0x2e7
 1232 02e7 13       		.uleb128 0x13
 1233 02e8 C5020000 		.4byte	0x2c5
 1234 02ec 12       		.uleb128 0x12
 1235 02ed FB010000 		.4byte	.LASF41
 1236 02f1 01       		.byte	0x1
 1237 02f2 C2       		.byte	0xc2
 1238 02f3 35020000 		.4byte	0x235
 1239 02f7 05       		.uleb128 0x5
 1240 02f8 03       		.byte	0x3
 1241 02f9 00000000 		.4byte	IMO_TRIM_FREQ_TABLE_ENTRIES.4741
 1242 02fd 12       		.uleb128 0x12
 1243 02fe 92010000 		.4byte	.LASF42
 1244 0302 01       		.byte	0x1
 1245 0303 C4       		.byte	0xc4
 1246 0304 A7000000 		.4byte	0xa7
 1247 0308 02       		.uleb128 0x2
 1248 0309 91       		.byte	0x91
ARM GAS  C:\Users\MANISH~1\AppData\Local\Temp\ccB4xhqf.s 			page 31


 1249 030a 74       		.sleb128 -12
 1250 030b 12       		.uleb128 0x12
 1251 030c 17000000 		.4byte	.LASF43
 1252 0310 01       		.byte	0x1
 1253 0311 C5       		.byte	0xc5
 1254 0312 86000000 		.4byte	0x86
 1255 0316 02       		.uleb128 0x2
 1256 0317 91       		.byte	0x91
 1257 0318 73       		.sleb128 -13
 1258 0319 12       		.uleb128 0x12
 1259 031a 54030000 		.4byte	.LASF44
 1260 031e 01       		.byte	0x1
 1261 031f C6       		.byte	0xc6
 1262 0320 86000000 		.4byte	0x86
 1263 0324 02       		.uleb128 0x2
 1264 0325 91       		.byte	0x91
 1265 0326 72       		.sleb128 -14
 1266 0327 00       		.byte	0
 1267 0328 16       		.uleb128 0x16
 1268 0329 EA000000 		.4byte	.LASF45
 1269 032d 01       		.byte	0x1
 1270 032e EC       		.byte	0xec
 1271 032f A4000000 		.4byte	.LFB7
 1272 0333 D8000000 		.4byte	.LFE7-.LFB7
 1273 0337 01       		.uleb128 0x1
 1274 0338 9C       		.byte	0x9c
 1275 0339 17       		.uleb128 0x17
 1276 033a AA000000 		.4byte	.LASF46
 1277 033e 01       		.byte	0x1
 1278 033f 2E01     		.2byte	0x12e
 1279 0341 00000000 		.4byte	.LFB8
 1280 0345 64000000 		.4byte	.LFE8-.LFB8
 1281 0349 01       		.uleb128 0x1
 1282 034a 9C       		.byte	0x9c
 1283 034b 18       		.uleb128 0x18
 1284 034c 11030000 		.4byte	.LASF49
 1285 0350 01       		.byte	0x1
 1286 0351 4B01     		.2byte	0x14b
 1287 0353 00000000 		.4byte	.LFB9
 1288 0357 40000000 		.4byte	.LFE9-.LFB9
 1289 035b 01       		.uleb128 0x1
 1290 035c 9C       		.byte	0x9c
 1291 035d 80030000 		.4byte	0x380
 1292 0361 19       		.uleb128 0x19
 1293 0362 40030000 		.4byte	.LASF47
 1294 0366 01       		.byte	0x1
 1295 0367 4B01     		.2byte	0x14b
 1296 0369 86000000 		.4byte	0x86
 1297 036d 02       		.uleb128 0x2
 1298 036e 91       		.byte	0x91
 1299 036f 6F       		.sleb128 -17
 1300 0370 1A       		.uleb128 0x1a
 1301 0371 18010000 		.4byte	.LASF48
 1302 0375 01       		.byte	0x1
 1303 0376 4D01     		.2byte	0x14d
 1304 0378 9C000000 		.4byte	0x9c
 1305 037c 02       		.uleb128 0x2
ARM GAS  C:\Users\MANISH~1\AppData\Local\Temp\ccB4xhqf.s 			page 32


 1306 037d 91       		.byte	0x91
 1307 037e 74       		.sleb128 -12
 1308 037f 00       		.byte	0
 1309 0380 1B       		.uleb128 0x1b
 1310 0381 5D030000 		.4byte	.LASF50
 1311 0385 01       		.byte	0x1
 1312 0386 6D01     		.2byte	0x16d
 1313 0388 7C010000 		.4byte	.LFB10
 1314 038c 64010000 		.4byte	.LFE10-.LFB10
 1315 0390 01       		.uleb128 0x1
 1316 0391 9C       		.byte	0x9c
 1317 0392 4C040000 		.4byte	0x44c
 1318 0396 11       		.uleb128 0x11
 1319 0397 8A010000 		.4byte	.LBB3
 1320 039b F2000000 		.4byte	.LBE3-.LBB3
 1321 039f 1A       		.uleb128 0x1a
 1322 03a0 27030000 		.4byte	.LASF51
 1323 03a4 01       		.byte	0x1
 1324 03a5 7501     		.2byte	0x175
 1325 03a7 5C040000 		.4byte	0x45c
 1326 03ab 05       		.uleb128 0x5
 1327 03ac 03       		.byte	0x3
 1328 03ad 10000000 		.4byte	cy_cfg_addr_table.4765
 1329 03b1 1A       		.uleb128 0x1a
 1330 03b2 98000000 		.4byte	.LASF52
 1331 03b6 01       		.byte	0x1
 1332 03b7 7B01     		.2byte	0x17b
 1333 03b9 71040000 		.4byte	0x471
 1334 03bd 05       		.uleb128 0x5
 1335 03be 03       		.byte	0x3
 1336 03bf 1C000000 		.4byte	cy_cfg_data_table.4766
 1337 03c3 1C       		.uleb128 0x1c
 1338 03c4 06       		.byte	0x6
 1339 03c5 01       		.byte	0x1
 1340 03c6 8701     		.2byte	0x187
 1341 03c8 E7030000 		.4byte	0x3e7
 1342 03cc 1D       		.uleb128 0x1d
 1343 03cd D5010000 		.4byte	.LASF53
 1344 03d1 01       		.byte	0x1
 1345 03d2 8801     		.2byte	0x188
 1346 03d4 7D000000 		.4byte	0x7d
 1347 03d8 00       		.byte	0
 1348 03d9 1D       		.uleb128 0x1d
 1349 03da 71010000 		.4byte	.LASF54
 1350 03de 01       		.byte	0x1
 1351 03df 8901     		.2byte	0x189
 1352 03e1 91000000 		.4byte	0x91
 1353 03e5 04       		.byte	0x4
 1354 03e6 00       		.byte	0
 1355 03e7 06       		.uleb128 0x6
 1356 03e8 EE010000 		.4byte	.LASF55
 1357 03ec 01       		.byte	0x1
 1358 03ed 8A01     		.2byte	0x18a
 1359 03ef C3030000 		.4byte	0x3c3
 1360 03f3 14       		.uleb128 0x14
 1361 03f4 E7030000 		.4byte	0x3e7
 1362 03f8 03040000 		.4byte	0x403
ARM GAS  C:\Users\MANISH~1\AppData\Local\Temp\ccB4xhqf.s 			page 33


 1363 03fc 15       		.uleb128 0x15
 1364 03fd 76000000 		.4byte	0x76
 1365 0401 01       		.byte	0x1
 1366 0402 00       		.byte	0
 1367 0403 1A       		.uleb128 0x1a
 1368 0404 17020000 		.4byte	.LASF56
 1369 0408 01       		.byte	0x1
 1370 0409 8C01     		.2byte	0x18c
 1371 040b 15040000 		.4byte	0x415
 1372 040f 05       		.uleb128 0x5
 1373 0410 03       		.byte	0x3
 1374 0411 04000000 		.4byte	cfg_memset_list.4771
 1375 0415 13       		.uleb128 0x13
 1376 0416 F3030000 		.4byte	0x3f3
 1377 041a 1E       		.uleb128 0x1e
 1378 041b 6900     		.ascii	"i\000"
 1379 041d 01       		.byte	0x1
 1380 041e 9201     		.2byte	0x192
 1381 0420 86000000 		.4byte	0x86
 1382 0424 02       		.uleb128 0x2
 1383 0425 91       		.byte	0x91
 1384 0426 77       		.sleb128 -9
 1385 0427 11       		.uleb128 0x11
 1386 0428 92010000 		.4byte	.LBB4
 1387 042c 3E000000 		.4byte	.LBE4-.LBB4
 1388 0430 1E       		.uleb128 0x1e
 1389 0431 6D7300   		.ascii	"ms\000"
 1390 0434 01       		.byte	0x1
 1391 0435 9701     		.2byte	0x197
 1392 0437 3E040000 		.4byte	0x43e
 1393 043b 02       		.uleb128 0x2
 1394 043c 91       		.byte	0x91
 1395 043d 70       		.sleb128 -16
 1396 043e 0D       		.uleb128 0xd
 1397 043f 04       		.byte	0x4
 1398 0440 44040000 		.4byte	0x444
 1399 0444 13       		.uleb128 0x13
 1400 0445 E7030000 		.4byte	0x3e7
 1401 0449 00       		.byte	0
 1402 044a 00       		.byte	0
 1403 044b 00       		.byte	0
 1404 044c 14       		.uleb128 0x14
 1405 044d 9C000000 		.4byte	0x9c
 1406 0451 5C040000 		.4byte	0x45c
 1407 0455 15       		.uleb128 0x15
 1408 0456 76000000 		.4byte	0x76
 1409 045a 02       		.byte	0x2
 1410 045b 00       		.byte	0
 1411 045c 13       		.uleb128 0x13
 1412 045d 4C040000 		.4byte	0x44c
 1413 0461 14       		.uleb128 0x14
 1414 0462 03010000 		.4byte	0x103
 1415 0466 71040000 		.4byte	0x471
 1416 046a 15       		.uleb128 0x15
 1417 046b 76000000 		.4byte	0x76
 1418 046f 06       		.byte	0x6
 1419 0470 00       		.byte	0
ARM GAS  C:\Users\MANISH~1\AppData\Local\Temp\ccB4xhqf.s 			page 34


 1420 0471 13       		.uleb128 0x13
 1421 0472 61040000 		.4byte	0x461
 1422 0476 00       		.byte	0
 1423              		.section	.debug_abbrev,"",%progbits
 1424              	.Ldebug_abbrev0:
 1425 0000 01       		.uleb128 0x1
 1426 0001 11       		.uleb128 0x11
 1427 0002 01       		.byte	0x1
 1428 0003 25       		.uleb128 0x25
 1429 0004 0E       		.uleb128 0xe
 1430 0005 13       		.uleb128 0x13
 1431 0006 0B       		.uleb128 0xb
 1432 0007 03       		.uleb128 0x3
 1433 0008 0E       		.uleb128 0xe
 1434 0009 1B       		.uleb128 0x1b
 1435 000a 0E       		.uleb128 0xe
 1436 000b 55       		.uleb128 0x55
 1437 000c 17       		.uleb128 0x17
 1438 000d 11       		.uleb128 0x11
 1439 000e 01       		.uleb128 0x1
 1440 000f 10       		.uleb128 0x10
 1441 0010 17       		.uleb128 0x17
 1442 0011 00       		.byte	0
 1443 0012 00       		.byte	0
 1444 0013 02       		.uleb128 0x2
 1445 0014 24       		.uleb128 0x24
 1446 0015 00       		.byte	0
 1447 0016 0B       		.uleb128 0xb
 1448 0017 0B       		.uleb128 0xb
 1449 0018 3E       		.uleb128 0x3e
 1450 0019 0B       		.uleb128 0xb
 1451 001a 03       		.uleb128 0x3
 1452 001b 08       		.uleb128 0x8
 1453 001c 00       		.byte	0
 1454 001d 00       		.byte	0
 1455 001e 03       		.uleb128 0x3
 1456 001f 16       		.uleb128 0x16
 1457 0020 00       		.byte	0
 1458 0021 03       		.uleb128 0x3
 1459 0022 0E       		.uleb128 0xe
 1460 0023 3A       		.uleb128 0x3a
 1461 0024 0B       		.uleb128 0xb
 1462 0025 3B       		.uleb128 0x3b
 1463 0026 0B       		.uleb128 0xb
 1464 0027 49       		.uleb128 0x49
 1465 0028 13       		.uleb128 0x13
 1466 0029 00       		.byte	0
 1467 002a 00       		.byte	0
 1468 002b 04       		.uleb128 0x4
 1469 002c 24       		.uleb128 0x24
 1470 002d 00       		.byte	0
 1471 002e 0B       		.uleb128 0xb
 1472 002f 0B       		.uleb128 0xb
 1473 0030 3E       		.uleb128 0x3e
 1474 0031 0B       		.uleb128 0xb
 1475 0032 03       		.uleb128 0x3
 1476 0033 0E       		.uleb128 0xe
ARM GAS  C:\Users\MANISH~1\AppData\Local\Temp\ccB4xhqf.s 			page 35


 1477 0034 00       		.byte	0
 1478 0035 00       		.byte	0
 1479 0036 05       		.uleb128 0x5
 1480 0037 0F       		.uleb128 0xf
 1481 0038 00       		.byte	0
 1482 0039 0B       		.uleb128 0xb
 1483 003a 0B       		.uleb128 0xb
 1484 003b 00       		.byte	0
 1485 003c 00       		.byte	0
 1486 003d 06       		.uleb128 0x6
 1487 003e 16       		.uleb128 0x16
 1488 003f 00       		.byte	0
 1489 0040 03       		.uleb128 0x3
 1490 0041 0E       		.uleb128 0xe
 1491 0042 3A       		.uleb128 0x3a
 1492 0043 0B       		.uleb128 0xb
 1493 0044 3B       		.uleb128 0x3b
 1494 0045 05       		.uleb128 0x5
 1495 0046 49       		.uleb128 0x49
 1496 0047 13       		.uleb128 0x13
 1497 0048 00       		.byte	0
 1498 0049 00       		.byte	0
 1499 004a 07       		.uleb128 0x7
 1500 004b 35       		.uleb128 0x35
 1501 004c 00       		.byte	0
 1502 004d 49       		.uleb128 0x49
 1503 004e 13       		.uleb128 0x13
 1504 004f 00       		.byte	0
 1505 0050 00       		.byte	0
 1506 0051 08       		.uleb128 0x8
 1507 0052 13       		.uleb128 0x13
 1508 0053 01       		.byte	0x1
 1509 0054 0B       		.uleb128 0xb
 1510 0055 0B       		.uleb128 0xb
 1511 0056 3A       		.uleb128 0x3a
 1512 0057 0B       		.uleb128 0xb
 1513 0058 3B       		.uleb128 0x3b
 1514 0059 0B       		.uleb128 0xb
 1515 005a 01       		.uleb128 0x1
 1516 005b 13       		.uleb128 0x13
 1517 005c 00       		.byte	0
 1518 005d 00       		.byte	0
 1519 005e 09       		.uleb128 0x9
 1520 005f 0D       		.uleb128 0xd
 1521 0060 00       		.byte	0
 1522 0061 03       		.uleb128 0x3
 1523 0062 0E       		.uleb128 0xe
 1524 0063 3A       		.uleb128 0x3a
 1525 0064 0B       		.uleb128 0xb
 1526 0065 3B       		.uleb128 0x3b
 1527 0066 0B       		.uleb128 0xb
 1528 0067 49       		.uleb128 0x49
 1529 0068 13       		.uleb128 0x13
 1530 0069 38       		.uleb128 0x38
 1531 006a 0B       		.uleb128 0xb
 1532 006b 00       		.byte	0
 1533 006c 00       		.byte	0
ARM GAS  C:\Users\MANISH~1\AppData\Local\Temp\ccB4xhqf.s 			page 36


 1534 006d 0A       		.uleb128 0xa
 1535 006e 2E       		.uleb128 0x2e
 1536 006f 01       		.byte	0x1
 1537 0070 03       		.uleb128 0x3
 1538 0071 0E       		.uleb128 0xe
 1539 0072 3A       		.uleb128 0x3a
 1540 0073 0B       		.uleb128 0xb
 1541 0074 3B       		.uleb128 0x3b
 1542 0075 0B       		.uleb128 0xb
 1543 0076 27       		.uleb128 0x27
 1544 0077 19       		.uleb128 0x19
 1545 0078 11       		.uleb128 0x11
 1546 0079 01       		.uleb128 0x1
 1547 007a 12       		.uleb128 0x12
 1548 007b 06       		.uleb128 0x6
 1549 007c 40       		.uleb128 0x40
 1550 007d 18       		.uleb128 0x18
 1551 007e 9642     		.uleb128 0x2116
 1552 0080 19       		.uleb128 0x19
 1553 0081 01       		.uleb128 0x1
 1554 0082 13       		.uleb128 0x13
 1555 0083 00       		.byte	0
 1556 0084 00       		.byte	0
 1557 0085 0B       		.uleb128 0xb
 1558 0086 05       		.uleb128 0x5
 1559 0087 00       		.byte	0
 1560 0088 03       		.uleb128 0x3
 1561 0089 08       		.uleb128 0x8
 1562 008a 3A       		.uleb128 0x3a
 1563 008b 0B       		.uleb128 0xb
 1564 008c 3B       		.uleb128 0x3b
 1565 008d 0B       		.uleb128 0xb
 1566 008e 49       		.uleb128 0x49
 1567 008f 13       		.uleb128 0x13
 1568 0090 02       		.uleb128 0x2
 1569 0091 18       		.uleb128 0x18
 1570 0092 00       		.byte	0
 1571 0093 00       		.byte	0
 1572 0094 0C       		.uleb128 0xc
 1573 0095 05       		.uleb128 0x5
 1574 0096 00       		.byte	0
 1575 0097 03       		.uleb128 0x3
 1576 0098 0E       		.uleb128 0xe
 1577 0099 3A       		.uleb128 0x3a
 1578 009a 0B       		.uleb128 0xb
 1579 009b 3B       		.uleb128 0x3b
 1580 009c 0B       		.uleb128 0xb
 1581 009d 49       		.uleb128 0x49
 1582 009e 13       		.uleb128 0x13
 1583 009f 02       		.uleb128 0x2
 1584 00a0 18       		.uleb128 0x18
 1585 00a1 00       		.byte	0
 1586 00a2 00       		.byte	0
 1587 00a3 0D       		.uleb128 0xd
 1588 00a4 0F       		.uleb128 0xf
 1589 00a5 00       		.byte	0
 1590 00a6 0B       		.uleb128 0xb
ARM GAS  C:\Users\MANISH~1\AppData\Local\Temp\ccB4xhqf.s 			page 37


 1591 00a7 0B       		.uleb128 0xb
 1592 00a8 49       		.uleb128 0x49
 1593 00a9 13       		.uleb128 0x13
 1594 00aa 00       		.byte	0
 1595 00ab 00       		.byte	0
 1596 00ac 0E       		.uleb128 0xe
 1597 00ad 26       		.uleb128 0x26
 1598 00ae 00       		.byte	0
 1599 00af 00       		.byte	0
 1600 00b0 00       		.byte	0
 1601 00b1 0F       		.uleb128 0xf
 1602 00b2 2E       		.uleb128 0x2e
 1603 00b3 01       		.byte	0x1
 1604 00b4 03       		.uleb128 0x3
 1605 00b5 0E       		.uleb128 0xe
 1606 00b6 3A       		.uleb128 0x3a
 1607 00b7 0B       		.uleb128 0xb
 1608 00b8 3B       		.uleb128 0x3b
 1609 00b9 0B       		.uleb128 0xb
 1610 00ba 27       		.uleb128 0x27
 1611 00bb 19       		.uleb128 0x19
 1612 00bc 11       		.uleb128 0x11
 1613 00bd 01       		.uleb128 0x1
 1614 00be 12       		.uleb128 0x12
 1615 00bf 06       		.uleb128 0x6
 1616 00c0 40       		.uleb128 0x40
 1617 00c1 18       		.uleb128 0x18
 1618 00c2 9742     		.uleb128 0x2117
 1619 00c4 19       		.uleb128 0x19
 1620 00c5 01       		.uleb128 0x1
 1621 00c6 13       		.uleb128 0x13
 1622 00c7 00       		.byte	0
 1623 00c8 00       		.byte	0
 1624 00c9 10       		.uleb128 0x10
 1625 00ca 34       		.uleb128 0x34
 1626 00cb 00       		.byte	0
 1627 00cc 03       		.uleb128 0x3
 1628 00cd 08       		.uleb128 0x8
 1629 00ce 3A       		.uleb128 0x3a
 1630 00cf 0B       		.uleb128 0xb
 1631 00d0 3B       		.uleb128 0x3b
 1632 00d1 0B       		.uleb128 0xb
 1633 00d2 49       		.uleb128 0x49
 1634 00d3 13       		.uleb128 0x13
 1635 00d4 02       		.uleb128 0x2
 1636 00d5 18       		.uleb128 0x18
 1637 00d6 00       		.byte	0
 1638 00d7 00       		.byte	0
 1639 00d8 11       		.uleb128 0x11
 1640 00d9 0B       		.uleb128 0xb
 1641 00da 01       		.byte	0x1
 1642 00db 11       		.uleb128 0x11
 1643 00dc 01       		.uleb128 0x1
 1644 00dd 12       		.uleb128 0x12
 1645 00de 06       		.uleb128 0x6
 1646 00df 00       		.byte	0
 1647 00e0 00       		.byte	0
ARM GAS  C:\Users\MANISH~1\AppData\Local\Temp\ccB4xhqf.s 			page 38


 1648 00e1 12       		.uleb128 0x12
 1649 00e2 34       		.uleb128 0x34
 1650 00e3 00       		.byte	0
 1651 00e4 03       		.uleb128 0x3
 1652 00e5 0E       		.uleb128 0xe
 1653 00e6 3A       		.uleb128 0x3a
 1654 00e7 0B       		.uleb128 0xb
 1655 00e8 3B       		.uleb128 0x3b
 1656 00e9 0B       		.uleb128 0xb
 1657 00ea 49       		.uleb128 0x49
 1658 00eb 13       		.uleb128 0x13
 1659 00ec 02       		.uleb128 0x2
 1660 00ed 18       		.uleb128 0x18
 1661 00ee 00       		.byte	0
 1662 00ef 00       		.byte	0
 1663 00f0 13       		.uleb128 0x13
 1664 00f1 26       		.uleb128 0x26
 1665 00f2 00       		.byte	0
 1666 00f3 49       		.uleb128 0x49
 1667 00f4 13       		.uleb128 0x13
 1668 00f5 00       		.byte	0
 1669 00f6 00       		.byte	0
 1670 00f7 14       		.uleb128 0x14
 1671 00f8 01       		.uleb128 0x1
 1672 00f9 01       		.byte	0x1
 1673 00fa 49       		.uleb128 0x49
 1674 00fb 13       		.uleb128 0x13
 1675 00fc 01       		.uleb128 0x1
 1676 00fd 13       		.uleb128 0x13
 1677 00fe 00       		.byte	0
 1678 00ff 00       		.byte	0
 1679 0100 15       		.uleb128 0x15
 1680 0101 21       		.uleb128 0x21
 1681 0102 00       		.byte	0
 1682 0103 49       		.uleb128 0x49
 1683 0104 13       		.uleb128 0x13
 1684 0105 2F       		.uleb128 0x2f
 1685 0106 0B       		.uleb128 0xb
 1686 0107 00       		.byte	0
 1687 0108 00       		.byte	0
 1688 0109 16       		.uleb128 0x16
 1689 010a 2E       		.uleb128 0x2e
 1690 010b 00       		.byte	0
 1691 010c 03       		.uleb128 0x3
 1692 010d 0E       		.uleb128 0xe
 1693 010e 3A       		.uleb128 0x3a
 1694 010f 0B       		.uleb128 0xb
 1695 0110 3B       		.uleb128 0x3b
 1696 0111 0B       		.uleb128 0xb
 1697 0112 27       		.uleb128 0x27
 1698 0113 19       		.uleb128 0x19
 1699 0114 11       		.uleb128 0x11
 1700 0115 01       		.uleb128 0x1
 1701 0116 12       		.uleb128 0x12
 1702 0117 06       		.uleb128 0x6
 1703 0118 40       		.uleb128 0x40
 1704 0119 18       		.uleb128 0x18
ARM GAS  C:\Users\MANISH~1\AppData\Local\Temp\ccB4xhqf.s 			page 39


 1705 011a 9642     		.uleb128 0x2116
 1706 011c 19       		.uleb128 0x19
 1707 011d 00       		.byte	0
 1708 011e 00       		.byte	0
 1709 011f 17       		.uleb128 0x17
 1710 0120 2E       		.uleb128 0x2e
 1711 0121 00       		.byte	0
 1712 0122 03       		.uleb128 0x3
 1713 0123 0E       		.uleb128 0xe
 1714 0124 3A       		.uleb128 0x3a
 1715 0125 0B       		.uleb128 0xb
 1716 0126 3B       		.uleb128 0x3b
 1717 0127 05       		.uleb128 0x5
 1718 0128 27       		.uleb128 0x27
 1719 0129 19       		.uleb128 0x19
 1720 012a 11       		.uleb128 0x11
 1721 012b 01       		.uleb128 0x1
 1722 012c 12       		.uleb128 0x12
 1723 012d 06       		.uleb128 0x6
 1724 012e 40       		.uleb128 0x40
 1725 012f 18       		.uleb128 0x18
 1726 0130 9642     		.uleb128 0x2116
 1727 0132 19       		.uleb128 0x19
 1728 0133 00       		.byte	0
 1729 0134 00       		.byte	0
 1730 0135 18       		.uleb128 0x18
 1731 0136 2E       		.uleb128 0x2e
 1732 0137 01       		.byte	0x1
 1733 0138 3F       		.uleb128 0x3f
 1734 0139 19       		.uleb128 0x19
 1735 013a 03       		.uleb128 0x3
 1736 013b 0E       		.uleb128 0xe
 1737 013c 3A       		.uleb128 0x3a
 1738 013d 0B       		.uleb128 0xb
 1739 013e 3B       		.uleb128 0x3b
 1740 013f 05       		.uleb128 0x5
 1741 0140 27       		.uleb128 0x27
 1742 0141 19       		.uleb128 0x19
 1743 0142 11       		.uleb128 0x11
 1744 0143 01       		.uleb128 0x1
 1745 0144 12       		.uleb128 0x12
 1746 0145 06       		.uleb128 0x6
 1747 0146 40       		.uleb128 0x40
 1748 0147 18       		.uleb128 0x18
 1749 0148 9742     		.uleb128 0x2117
 1750 014a 19       		.uleb128 0x19
 1751 014b 01       		.uleb128 0x1
 1752 014c 13       		.uleb128 0x13
 1753 014d 00       		.byte	0
 1754 014e 00       		.byte	0
 1755 014f 19       		.uleb128 0x19
 1756 0150 05       		.uleb128 0x5
 1757 0151 00       		.byte	0
 1758 0152 03       		.uleb128 0x3
 1759 0153 0E       		.uleb128 0xe
 1760 0154 3A       		.uleb128 0x3a
 1761 0155 0B       		.uleb128 0xb
ARM GAS  C:\Users\MANISH~1\AppData\Local\Temp\ccB4xhqf.s 			page 40


 1762 0156 3B       		.uleb128 0x3b
 1763 0157 05       		.uleb128 0x5
 1764 0158 49       		.uleb128 0x49
 1765 0159 13       		.uleb128 0x13
 1766 015a 02       		.uleb128 0x2
 1767 015b 18       		.uleb128 0x18
 1768 015c 00       		.byte	0
 1769 015d 00       		.byte	0
 1770 015e 1A       		.uleb128 0x1a
 1771 015f 34       		.uleb128 0x34
 1772 0160 00       		.byte	0
 1773 0161 03       		.uleb128 0x3
 1774 0162 0E       		.uleb128 0xe
 1775 0163 3A       		.uleb128 0x3a
 1776 0164 0B       		.uleb128 0xb
 1777 0165 3B       		.uleb128 0x3b
 1778 0166 05       		.uleb128 0x5
 1779 0167 49       		.uleb128 0x49
 1780 0168 13       		.uleb128 0x13
 1781 0169 02       		.uleb128 0x2
 1782 016a 18       		.uleb128 0x18
 1783 016b 00       		.byte	0
 1784 016c 00       		.byte	0
 1785 016d 1B       		.uleb128 0x1b
 1786 016e 2E       		.uleb128 0x2e
 1787 016f 01       		.byte	0x1
 1788 0170 3F       		.uleb128 0x3f
 1789 0171 19       		.uleb128 0x19
 1790 0172 03       		.uleb128 0x3
 1791 0173 0E       		.uleb128 0xe
 1792 0174 3A       		.uleb128 0x3a
 1793 0175 0B       		.uleb128 0xb
 1794 0176 3B       		.uleb128 0x3b
 1795 0177 05       		.uleb128 0x5
 1796 0178 27       		.uleb128 0x27
 1797 0179 19       		.uleb128 0x19
 1798 017a 11       		.uleb128 0x11
 1799 017b 01       		.uleb128 0x1
 1800 017c 12       		.uleb128 0x12
 1801 017d 06       		.uleb128 0x6
 1802 017e 40       		.uleb128 0x40
 1803 017f 18       		.uleb128 0x18
 1804 0180 9642     		.uleb128 0x2116
 1805 0182 19       		.uleb128 0x19
 1806 0183 01       		.uleb128 0x1
 1807 0184 13       		.uleb128 0x13
 1808 0185 00       		.byte	0
 1809 0186 00       		.byte	0
 1810 0187 1C       		.uleb128 0x1c
 1811 0188 13       		.uleb128 0x13
 1812 0189 01       		.byte	0x1
 1813 018a 0B       		.uleb128 0xb
 1814 018b 0B       		.uleb128 0xb
 1815 018c 3A       		.uleb128 0x3a
 1816 018d 0B       		.uleb128 0xb
 1817 018e 3B       		.uleb128 0x3b
 1818 018f 05       		.uleb128 0x5
ARM GAS  C:\Users\MANISH~1\AppData\Local\Temp\ccB4xhqf.s 			page 41


 1819 0190 01       		.uleb128 0x1
 1820 0191 13       		.uleb128 0x13
 1821 0192 00       		.byte	0
 1822 0193 00       		.byte	0
 1823 0194 1D       		.uleb128 0x1d
 1824 0195 0D       		.uleb128 0xd
 1825 0196 00       		.byte	0
 1826 0197 03       		.uleb128 0x3
 1827 0198 0E       		.uleb128 0xe
 1828 0199 3A       		.uleb128 0x3a
 1829 019a 0B       		.uleb128 0xb
 1830 019b 3B       		.uleb128 0x3b
 1831 019c 05       		.uleb128 0x5
 1832 019d 49       		.uleb128 0x49
 1833 019e 13       		.uleb128 0x13
 1834 019f 38       		.uleb128 0x38
 1835 01a0 0B       		.uleb128 0xb
 1836 01a1 00       		.byte	0
 1837 01a2 00       		.byte	0
 1838 01a3 1E       		.uleb128 0x1e
 1839 01a4 34       		.uleb128 0x34
 1840 01a5 00       		.byte	0
 1841 01a6 03       		.uleb128 0x3
 1842 01a7 08       		.uleb128 0x8
 1843 01a8 3A       		.uleb128 0x3a
 1844 01a9 0B       		.uleb128 0xb
 1845 01aa 3B       		.uleb128 0x3b
 1846 01ab 05       		.uleb128 0x5
 1847 01ac 49       		.uleb128 0x49
 1848 01ad 13       		.uleb128 0x13
 1849 01ae 02       		.uleb128 0x2
 1850 01af 18       		.uleb128 0x18
 1851 01b0 00       		.byte	0
 1852 01b1 00       		.byte	0
 1853 01b2 00       		.byte	0
 1854              		.section	.debug_aranges,"",%progbits
 1855 0000 5C000000 		.4byte	0x5c
 1856 0004 0200     		.2byte	0x2
 1857 0006 00000000 		.4byte	.Ldebug_info0
 1858 000a 04       		.byte	0x4
 1859 000b 00       		.byte	0
 1860 000c 0000     		.2byte	0
 1861 000e 0000     		.2byte	0
 1862 0010 00000000 		.4byte	.LFB2
 1863 0014 1E000000 		.4byte	.LFE2-.LFB2
 1864 0018 00000000 		.4byte	.LFB3
 1865 001c 22000000 		.4byte	.LFE3-.LFB3
 1866 0020 00000000 		.4byte	.LFB4
 1867 0024 22000000 		.4byte	.LFE4-.LFB4
 1868 0028 00000000 		.4byte	.LFB5
 1869 002c 7E000000 		.4byte	.LFE5-.LFB5
 1870 0030 00000000 		.4byte	.LFB6
 1871 0034 A4000000 		.4byte	.LFE6-.LFB6
 1872 0038 A4000000 		.4byte	.LFB7
 1873 003c D8000000 		.4byte	.LFE7-.LFB7
 1874 0040 00000000 		.4byte	.LFB8
 1875 0044 64000000 		.4byte	.LFE8-.LFB8
ARM GAS  C:\Users\MANISH~1\AppData\Local\Temp\ccB4xhqf.s 			page 42


 1876 0048 00000000 		.4byte	.LFB9
 1877 004c 40000000 		.4byte	.LFE9-.LFB9
 1878 0050 7C010000 		.4byte	.LFB10
 1879 0054 64010000 		.4byte	.LFE10-.LFB10
 1880 0058 00000000 		.4byte	0
 1881 005c 00000000 		.4byte	0
 1882              		.section	.debug_ranges,"",%progbits
 1883              	.Ldebug_ranges0:
 1884 0000 00000000 		.4byte	.LFB2
 1885 0004 1E000000 		.4byte	.LFE2
 1886 0008 00000000 		.4byte	.LFB3
 1887 000c 22000000 		.4byte	.LFE3
 1888 0010 00000000 		.4byte	.LFB4
 1889 0014 22000000 		.4byte	.LFE4
 1890 0018 00000000 		.4byte	.LFB5
 1891 001c 7E000000 		.4byte	.LFE5
 1892 0020 00000000 		.4byte	.LFB6
 1893 0024 A4000000 		.4byte	.LFE6
 1894 0028 A4000000 		.4byte	.LFB7
 1895 002c 7C010000 		.4byte	.LFE7
 1896 0030 00000000 		.4byte	.LFB8
 1897 0034 64000000 		.4byte	.LFE8
 1898 0038 00000000 		.4byte	.LFB9
 1899 003c 40000000 		.4byte	.LFE9
 1900 0040 7C010000 		.4byte	.LFB10
 1901 0044 E0020000 		.4byte	.LFE10
 1902 0048 00000000 		.4byte	0
 1903 004c 00000000 		.4byte	0
 1904              		.section	.debug_line,"",%progbits
 1905              	.Ldebug_line0:
 1906 0000 D2010000 		.section	.debug_str,"MS",%progbits,1
 1906      0200D000 
 1906      00000201 
 1906      FB0E0D00 
 1906      01010101 
 1907              	.LASF13:
 1908 0000 75696E74 		.ascii	"uint16\000"
 1908      313600
 1909              	.LASF30:
 1910 0007 62617365 		.ascii	"baseAddr\000"
 1910      41646472 
 1910      00
 1911              	.LASF11:
 1912 0010 73697A65 		.ascii	"size_t\000"
 1912      5F7400
 1913              	.LASF43:
 1914 0017 73657441 		.ascii	"setAbs\000"
 1914      627300
 1915              	.LASF29:
 1916 001e 64617461 		.ascii	"data_table\000"
 1916      5F746162 
 1916      6C6500
 1917              	.LASF8:
 1918 0029 6C6F6E67 		.ascii	"long long unsigned int\000"
 1918      206C6F6E 
 1918      6720756E 
 1918      7369676E 
ARM GAS  C:\Users\MANISH~1\AppData\Local\Temp\ccB4xhqf.s 			page 43


 1918      65642069 
 1919              	.LASF59:
 1920 0040 433A5C55 		.ascii	"C:\\Users\\Manisha Goyal\\Desktop\\safe_3\\lab3_man"
 1920      73657273 
 1920      5C4D616E 
 1920      69736861 
 1920      20476F79 
 1921 006e 69736861 		.ascii	"isha\\BLE Lab 3\\BLE Lab 3.cydsn\000"
 1921      5C424C45 
 1921      204C6162 
 1921      20335C42 
 1921      4C45204C 
 1922              	.LASF28:
 1923 008d 61646472 		.ascii	"addr_table\000"
 1923      5F746162 
 1923      6C6500
 1924              	.LASF52:
 1925 0098 63795F63 		.ascii	"cy_cfg_data_table\000"
 1925      66675F64 
 1925      6174615F 
 1925      7461626C 
 1925      6500
 1926              	.LASF46:
 1927 00aa 416E616C 		.ascii	"AnalogSetDefault\000"
 1927      6F675365 
 1927      74446566 
 1927      61756C74 
 1927      00
 1928              	.LASF7:
 1929 00bb 6C6F6E67 		.ascii	"long long int\000"
 1929      206C6F6E 
 1929      6720696E 
 1929      7400
 1930              	.LASF1:
 1931 00c9 7369676E 		.ascii	"signed char\000"
 1931      65642063 
 1931      68617200 
 1932              	.LASF34:
 1933 00d5 66726571 		.ascii	"freq\000"
 1933      00
 1934              	.LASF23:
 1935 00da 43594D45 		.ascii	"CYMEMZERO\000"
 1935      4D5A4552 
 1935      4F00
 1936              	.LASF15:
 1937 00e4 696E7433 		.ascii	"int32\000"
 1937      3200
 1938              	.LASF45:
 1939 00ea 436C6F63 		.ascii	"ClockSetup\000"
 1939      6B536574 
 1939      757000
 1940              	.LASF5:
 1941 00f5 6C6F6E67 		.ascii	"long int\000"
 1941      20696E74 
 1941      00
 1942              	.LASF12:
 1943 00fe 75696E74 		.ascii	"uint8\000"
ARM GAS  C:\Users\MANISH~1\AppData\Local\Temp\ccB4xhqf.s 			page 44


 1943      3800
 1944              	.LASF17:
 1945 0104 646F7562 		.ascii	"double\000"
 1945      6C6500
 1946              	.LASF14:
 1947 010b 75696E74 		.ascii	"uint32\000"
 1947      333200
 1948              	.LASF31:
 1949 0112 636F756E 		.ascii	"count\000"
 1949      7400
 1950              	.LASF48:
 1951 0118 72656756 		.ascii	"regValue\000"
 1951      616C7565 
 1951      00
 1952              	.LASF21:
 1953 0121 76616C75 		.ascii	"value\000"
 1953      6500
 1954              	.LASF0:
 1955 0127 756E7369 		.ascii	"unsigned int\000"
 1955      676E6564 
 1955      20696E74 
 1955      00
 1956              	.LASF37:
 1957 0134 696D6F5F 		.ascii	"imo_trim_entry_t\000"
 1957      7472696D 
 1957      5F656E74 
 1957      72795F74 
 1957      00
 1958              	.LASF33:
 1959 0145 696D6F46 		.ascii	"imoFreq\000"
 1959      72657100 
 1960              	.LASF6:
 1961 014d 6C6F6E67 		.ascii	"long unsigned int\000"
 1961      20756E73 
 1961      69676E65 
 1961      6420696E 
 1961      7400
 1962              	.LASF27:
 1963 015f 6366675F 		.ascii	"cfg_write_bytes32\000"
 1963      77726974 
 1963      655F6279 
 1963      74657333 
 1963      3200
 1964              	.LASF54:
 1965 0171 73697A65 		.ascii	"size\000"
 1965      00
 1966              	.LASF4:
 1967 0176 73686F72 		.ascii	"short unsigned int\000"
 1967      7420756E 
 1967      7369676E 
 1967      65642069 
 1967      6E7400
 1968              	.LASF35:
 1969 0189 6162736F 		.ascii	"absolute\000"
 1969      6C757465 
 1969      00
 1970              	.LASF42:
ARM GAS  C:\Users\MANISH~1\AppData\Local\Temp\ccB4xhqf.s 			page 45


 1971 0192 696D6F54 		.ascii	"imoTrimIndex\000"
 1971      72696D49 
 1971      6E646578 
 1971      00
 1972              	.LASF19:
 1973 019f 72656733 		.ascii	"reg32\000"
 1973      3200
 1974              	.LASF26:
 1975 01a5 4359434F 		.ascii	"CYCONFIGCPYCODE\000"
 1975      4E464947 
 1975      43505943 
 1975      4F444500 
 1976              	.LASF38:
 1977 01b5 656E7472 		.ascii	"entries\000"
 1977      69657300 
 1978              	.LASF9:
 1979 01bd 73697A65 		.ascii	"sizetype\000"
 1979      74797065 
 1979      00
 1980              	.LASF40:
 1981 01c6 696D6F5F 		.ascii	"imo_trim_table\000"
 1981      7472696D 
 1981      5F746162 
 1981      6C6500
 1982              	.LASF53:
 1983 01d5 61646472 		.ascii	"address\000"
 1983      65737300 
 1984              	.LASF39:
 1985 01dd 696D6F5F 		.ascii	"imo_trim_table_t\000"
 1985      7472696D 
 1985      5F746162 
 1985      6C655F74 
 1985      00
 1986              	.LASF55:
 1987 01ee 6366675F 		.ascii	"cfg_memset_t\000"
 1987      6D656D73 
 1987      65745F74 
 1987      00
 1988              	.LASF41:
 1989 01fb 494D4F5F 		.ascii	"IMO_TRIM_FREQ_TABLE_ENTRIES\000"
 1989      5452494D 
 1989      5F465245 
 1989      515F5441 
 1989      424C455F 
 1990              	.LASF56:
 1991 0217 6366675F 		.ascii	"cfg_memset_list\000"
 1991      6D656D73 
 1991      65745F6C 
 1991      69737400 
 1992              	.LASF25:
 1993 0227 64657374 		.ascii	"dest\000"
 1993      00
 1994              	.LASF58:
 1995 022c 2E5C4765 		.ascii	".\\Generated_Source\\PSoC4\\cyfitter_cfg.c\000"
 1995      6E657261 
 1995      7465645F 
 1995      536F7572 
ARM GAS  C:\Users\MANISH~1\AppData\Local\Temp\ccB4xhqf.s 			page 46


 1995      63655C50 
 1996              	.LASF16:
 1997 0254 666C6F61 		.ascii	"float\000"
 1997      7400
 1998              	.LASF57:
 1999 025a 474E5520 		.ascii	"GNU C 4.8.4 20140526 (release) [ARM/embedded-4_8-br"
 1999      4320342E 
 1999      382E3420 
 1999      32303134 
 1999      30353236 
 2000 028d 616E6368 		.ascii	"anch revision 211358] -mcpu=cortex-m0 -mthumb -g -O"
 2000      20726576 
 2000      6973696F 
 2000      6E203231 
 2000      31333538 
 2001 02c0 30202D66 		.ascii	"0 -ffunction-sections\000"
 2001      66756E63 
 2001      74696F6E 
 2001      2D736563 
 2001      74696F6E 
 2002              	.LASF18:
 2003 02d6 72656738 		.ascii	"reg8\000"
 2003      00
 2004              	.LASF2:
 2005 02db 756E7369 		.ascii	"unsigned char\000"
 2005      676E6564 
 2005      20636861 
 2005      7200
 2006              	.LASF36:
 2007 02e9 746D7063 		.ascii	"tmpco\000"
 2007      6F00
 2008              	.LASF3:
 2009 02ef 73686F72 		.ascii	"short int\000"
 2009      7420696E 
 2009      7400
 2010              	.LASF22:
 2011 02f9 63795F63 		.ascii	"cy_cfg_addrvalue_t\000"
 2011      66675F61 
 2011      64647276 
 2011      616C7565 
 2011      5F7400
 2012              	.LASF10:
 2013 030c 63686172 		.ascii	"char\000"
 2013      00
 2014              	.LASF49:
 2015 0311 53657441 		.ascii	"SetAnalogRoutingPumps\000"
 2015      6E616C6F 
 2015      67526F75 
 2015      74696E67 
 2015      50756D70 
 2016              	.LASF51:
 2017 0327 63795F63 		.ascii	"cy_cfg_addr_table\000"
 2017      66675F61 
 2017      6464725F 
 2017      7461626C 
 2017      6500
 2018              	.LASF20:
ARM GAS  C:\Users\MANISH~1\AppData\Local\Temp\ccB4xhqf.s 			page 47


 2019 0339 6F666673 		.ascii	"offset\000"
 2019      657400
 2020              	.LASF47:
 2021 0340 656E6162 		.ascii	"enabled\000"
 2021      6C656400 
 2022              	.LASF24:
 2023 0348 4359434F 		.ascii	"CYCONFIGCPY\000"
 2023      4E464947 
 2023      43505900 
 2024              	.LASF44:
 2025 0354 73657454 		.ascii	"setTmpCo\000"
 2025      6D70436F 
 2025      00
 2026              	.LASF50:
 2027 035d 63796669 		.ascii	"cyfitter_cfg\000"
 2027      74746572 
 2027      5F636667 
 2027      00
 2028              	.LASF32:
 2029 036a 53657449 		.ascii	"SetIMOBGTrims\000"
 2029      4D4F4247 
 2029      5472696D 
 2029      7300
 2030              		.ident	"GCC: (GNU Tools for ARM Embedded Processors) 4.8.4 20140526 (release) [ARM/embedded-4_8-br
