ARM GAS  C:\Users\MANISH~1\AppData\Local\Temp\cc67TuIP.s 			page 1


   1              		.cpu cortex-m0
   2              		.fpu softvfp
   3              		.eabi_attribute 20, 1
   4              		.eabi_attribute 21, 1
   5              		.eabi_attribute 23, 3
   6              		.eabi_attribute 24, 1
   7              		.eabi_attribute 25, 1
   8              		.eabi_attribute 26, 1
   9              		.eabi_attribute 30, 6
  10              		.eabi_attribute 34, 0
  11              		.eabi_attribute 18, 4
  12              		.code	16
  13              		.file	"Opamp_PM.c"
  14              		.text
  15              	.Ltext0:
  16              		.cfi_sections	.debug_frame
  17              		.section	.text.Opamp_SaveConfig,"ax",%progbits
  18              		.align	2
  19              		.global	Opamp_SaveConfig
  20              		.code	16
  21              		.thumb_func
  22              		.type	Opamp_SaveConfig, %function
  23              	Opamp_SaveConfig:
  24              	.LFB0:
  25              		.file 1 ".\\Generated_Source\\PSoC4\\Opamp_PM.c"
   1:.\Generated_Source\PSoC4/Opamp_PM.c **** /*******************************************************************************
   2:.\Generated_Source\PSoC4/Opamp_PM.c **** * File Name: Opamp_PM.c
   3:.\Generated_Source\PSoC4/Opamp_PM.c **** * Version 1.10
   4:.\Generated_Source\PSoC4/Opamp_PM.c **** *
   5:.\Generated_Source\PSoC4/Opamp_PM.c **** * Description:
   6:.\Generated_Source\PSoC4/Opamp_PM.c **** *  This file provides the power management source code to the API for the
   7:.\Generated_Source\PSoC4/Opamp_PM.c **** *  Opamp (Analog Buffer) component.
   8:.\Generated_Source\PSoC4/Opamp_PM.c **** *
   9:.\Generated_Source\PSoC4/Opamp_PM.c **** *
  10:.\Generated_Source\PSoC4/Opamp_PM.c **** ********************************************************************************
  11:.\Generated_Source\PSoC4/Opamp_PM.c **** * Copyright 2013-2014, Cypress Semiconductor Corporation.  All rights reserved.
  12:.\Generated_Source\PSoC4/Opamp_PM.c **** * You may use this file only in accordance with the license, terms, conditions,
  13:.\Generated_Source\PSoC4/Opamp_PM.c **** * disclaimers, and limitations in the end user license agreement accompanying
  14:.\Generated_Source\PSoC4/Opamp_PM.c **** * the software package with which this file was provided.
  15:.\Generated_Source\PSoC4/Opamp_PM.c **** *******************************************************************************/
  16:.\Generated_Source\PSoC4/Opamp_PM.c **** 
  17:.\Generated_Source\PSoC4/Opamp_PM.c **** #include "Opamp.h"
  18:.\Generated_Source\PSoC4/Opamp_PM.c **** 
  19:.\Generated_Source\PSoC4/Opamp_PM.c **** #if(!Opamp_CHECK_DEEPSLEEP_SUPPORT)
  20:.\Generated_Source\PSoC4/Opamp_PM.c ****     static Opamp_BACKUP_STRUCT Opamp_backup =
  21:.\Generated_Source\PSoC4/Opamp_PM.c ****     {
  22:.\Generated_Source\PSoC4/Opamp_PM.c ****         0u, /* enableState */
  23:.\Generated_Source\PSoC4/Opamp_PM.c ****     };
  24:.\Generated_Source\PSoC4/Opamp_PM.c **** #endif /* (Opamp_CHECK_DEEPSLEEP_SUPPORT) */
  25:.\Generated_Source\PSoC4/Opamp_PM.c **** 
  26:.\Generated_Source\PSoC4/Opamp_PM.c **** 
  27:.\Generated_Source\PSoC4/Opamp_PM.c **** /*******************************************************************************
  28:.\Generated_Source\PSoC4/Opamp_PM.c **** * Function Name: Opamp_SaveConfig
  29:.\Generated_Source\PSoC4/Opamp_PM.c **** ********************************************************************************
  30:.\Generated_Source\PSoC4/Opamp_PM.c **** *
  31:.\Generated_Source\PSoC4/Opamp_PM.c **** * Summary:
  32:.\Generated_Source\PSoC4/Opamp_PM.c **** *  Empty function. Included for consistency with other components.
ARM GAS  C:\Users\MANISH~1\AppData\Local\Temp\cc67TuIP.s 			page 2


  33:.\Generated_Source\PSoC4/Opamp_PM.c **** *
  34:.\Generated_Source\PSoC4/Opamp_PM.c **** * Parameters:
  35:.\Generated_Source\PSoC4/Opamp_PM.c **** *  None
  36:.\Generated_Source\PSoC4/Opamp_PM.c **** *
  37:.\Generated_Source\PSoC4/Opamp_PM.c **** * Return:
  38:.\Generated_Source\PSoC4/Opamp_PM.c **** *  None
  39:.\Generated_Source\PSoC4/Opamp_PM.c **** *
  40:.\Generated_Source\PSoC4/Opamp_PM.c **** *******************************************************************************/
  41:.\Generated_Source\PSoC4/Opamp_PM.c **** void Opamp_SaveConfig(void)
  42:.\Generated_Source\PSoC4/Opamp_PM.c **** {
  26              		.loc 1 42 0
  27              		.cfi_startproc
  28 0000 80B5     		push	{r7, lr}
  29              		.cfi_def_cfa_offset 8
  30              		.cfi_offset 7, -8
  31              		.cfi_offset 14, -4
  32 0002 00AF     		add	r7, sp, #0
  33              		.cfi_def_cfa_register 7
  43:.\Generated_Source\PSoC4/Opamp_PM.c **** 
  44:.\Generated_Source\PSoC4/Opamp_PM.c **** }
  34              		.loc 1 44 0
  35 0004 BD46     		mov	sp, r7
  36              		@ sp needed
  37 0006 80BD     		pop	{r7, pc}
  38              		.cfi_endproc
  39              	.LFE0:
  40              		.size	Opamp_SaveConfig, .-Opamp_SaveConfig
  41              		.section	.text.Opamp_RestoreConfig,"ax",%progbits
  42              		.align	2
  43              		.global	Opamp_RestoreConfig
  44              		.code	16
  45              		.thumb_func
  46              		.type	Opamp_RestoreConfig, %function
  47              	Opamp_RestoreConfig:
  48              	.LFB1:
  45:.\Generated_Source\PSoC4/Opamp_PM.c **** 
  46:.\Generated_Source\PSoC4/Opamp_PM.c **** 
  47:.\Generated_Source\PSoC4/Opamp_PM.c **** /*******************************************************************************
  48:.\Generated_Source\PSoC4/Opamp_PM.c **** * Function Name: Opamp_RestoreConfig
  49:.\Generated_Source\PSoC4/Opamp_PM.c **** ********************************************************************************
  50:.\Generated_Source\PSoC4/Opamp_PM.c **** *
  51:.\Generated_Source\PSoC4/Opamp_PM.c **** * Summary:
  52:.\Generated_Source\PSoC4/Opamp_PM.c **** *  Empty function. Included for consistency with other components.
  53:.\Generated_Source\PSoC4/Opamp_PM.c **** *
  54:.\Generated_Source\PSoC4/Opamp_PM.c **** * Parameters:
  55:.\Generated_Source\PSoC4/Opamp_PM.c **** *  None
  56:.\Generated_Source\PSoC4/Opamp_PM.c **** *
  57:.\Generated_Source\PSoC4/Opamp_PM.c **** * Return:
  58:.\Generated_Source\PSoC4/Opamp_PM.c **** *  None
  59:.\Generated_Source\PSoC4/Opamp_PM.c **** *
  60:.\Generated_Source\PSoC4/Opamp_PM.c **** *******************************************************************************/
  61:.\Generated_Source\PSoC4/Opamp_PM.c **** void Opamp_RestoreConfig(void)
  62:.\Generated_Source\PSoC4/Opamp_PM.c **** {
  49              		.loc 1 62 0
  50              		.cfi_startproc
  51 0000 80B5     		push	{r7, lr}
  52              		.cfi_def_cfa_offset 8
ARM GAS  C:\Users\MANISH~1\AppData\Local\Temp\cc67TuIP.s 			page 3


  53              		.cfi_offset 7, -8
  54              		.cfi_offset 14, -4
  55 0002 00AF     		add	r7, sp, #0
  56              		.cfi_def_cfa_register 7
  63:.\Generated_Source\PSoC4/Opamp_PM.c ****     
  64:.\Generated_Source\PSoC4/Opamp_PM.c **** }
  57              		.loc 1 64 0
  58 0004 BD46     		mov	sp, r7
  59              		@ sp needed
  60 0006 80BD     		pop	{r7, pc}
  61              		.cfi_endproc
  62              	.LFE1:
  63              		.size	Opamp_RestoreConfig, .-Opamp_RestoreConfig
  64              		.section	.text.Opamp_Sleep,"ax",%progbits
  65              		.align	2
  66              		.global	Opamp_Sleep
  67              		.code	16
  68              		.thumb_func
  69              		.type	Opamp_Sleep, %function
  70              	Opamp_Sleep:
  71              	.LFB2:
  65:.\Generated_Source\PSoC4/Opamp_PM.c **** 
  66:.\Generated_Source\PSoC4/Opamp_PM.c **** 
  67:.\Generated_Source\PSoC4/Opamp_PM.c **** /*******************************************************************************
  68:.\Generated_Source\PSoC4/Opamp_PM.c **** * Function Name: Opamp_Sleep
  69:.\Generated_Source\PSoC4/Opamp_PM.c **** ********************************************************************************
  70:.\Generated_Source\PSoC4/Opamp_PM.c **** *
  71:.\Generated_Source\PSoC4/Opamp_PM.c **** * Summary:
  72:.\Generated_Source\PSoC4/Opamp_PM.c **** *  This is the preferred API to prepare the component for sleep. The Sleep() API 
  73:.\Generated_Source\PSoC4/Opamp_PM.c **** *  saves the current component state. Call the Sleep() function before calling the 
  74:.\Generated_Source\PSoC4/Opamp_PM.c **** *  CySysPmDeepSleep() or the CySysPmHibernate() functions. The "Deep sleep operation" 
  75:.\Generated_Source\PSoC4/Opamp_PM.c **** *  option has an influence on this function implementation.
  76:.\Generated_Source\PSoC4/Opamp_PM.c **** *
  77:.\Generated_Source\PSoC4/Opamp_PM.c **** * Parameters:
  78:.\Generated_Source\PSoC4/Opamp_PM.c **** *  None
  79:.\Generated_Source\PSoC4/Opamp_PM.c **** *
  80:.\Generated_Source\PSoC4/Opamp_PM.c **** * Return:
  81:.\Generated_Source\PSoC4/Opamp_PM.c **** *  None
  82:.\Generated_Source\PSoC4/Opamp_PM.c **** *
  83:.\Generated_Source\PSoC4/Opamp_PM.c **** * Global variables:
  84:.\Generated_Source\PSoC4/Opamp_PM.c **** *  Opamp_backup: The structure field 'enableState' is modified
  85:.\Generated_Source\PSoC4/Opamp_PM.c **** *  depending on the enable state of the block before entering the sleep mode.
  86:.\Generated_Source\PSoC4/Opamp_PM.c **** *
  87:.\Generated_Source\PSoC4/Opamp_PM.c **** *******************************************************************************/
  88:.\Generated_Source\PSoC4/Opamp_PM.c **** void Opamp_Sleep(void)
  89:.\Generated_Source\PSoC4/Opamp_PM.c **** {
  72              		.loc 1 89 0
  73              		.cfi_startproc
  74 0000 80B5     		push	{r7, lr}
  75              		.cfi_def_cfa_offset 8
  76              		.cfi_offset 7, -8
  77              		.cfi_offset 14, -4
  78 0002 00AF     		add	r7, sp, #0
  79              		.cfi_def_cfa_register 7
  90:.\Generated_Source\PSoC4/Opamp_PM.c **** #if(!Opamp_CHECK_DEEPSLEEP_SUPPORT)
  91:.\Generated_Source\PSoC4/Opamp_PM.c ****     if(Opamp_CHECK_PWR_MODE_OFF)
  92:.\Generated_Source\PSoC4/Opamp_PM.c ****     {
ARM GAS  C:\Users\MANISH~1\AppData\Local\Temp\cc67TuIP.s 			page 4


  93:.\Generated_Source\PSoC4/Opamp_PM.c ****         Opamp_backup.enableState = 1u;
  94:.\Generated_Source\PSoC4/Opamp_PM.c ****         Opamp_Stop();
  95:.\Generated_Source\PSoC4/Opamp_PM.c ****     }
  96:.\Generated_Source\PSoC4/Opamp_PM.c ****     else /* The component is disabled */
  97:.\Generated_Source\PSoC4/Opamp_PM.c ****     {
  98:.\Generated_Source\PSoC4/Opamp_PM.c ****         Opamp_backup.enableState = 0u;
  99:.\Generated_Source\PSoC4/Opamp_PM.c ****     }
 100:.\Generated_Source\PSoC4/Opamp_PM.c **** #endif /* (Opamp_CHECK_DEEPSLEEP_SUPPORT) */
 101:.\Generated_Source\PSoC4/Opamp_PM.c **** }
  80              		.loc 1 101 0
  81 0004 BD46     		mov	sp, r7
  82              		@ sp needed
  83 0006 80BD     		pop	{r7, pc}
  84              		.cfi_endproc
  85              	.LFE2:
  86              		.size	Opamp_Sleep, .-Opamp_Sleep
  87              		.section	.text.Opamp_Wakeup,"ax",%progbits
  88              		.align	2
  89              		.global	Opamp_Wakeup
  90              		.code	16
  91              		.thumb_func
  92              		.type	Opamp_Wakeup, %function
  93              	Opamp_Wakeup:
  94              	.LFB3:
 102:.\Generated_Source\PSoC4/Opamp_PM.c **** 
 103:.\Generated_Source\PSoC4/Opamp_PM.c **** 
 104:.\Generated_Source\PSoC4/Opamp_PM.c **** /*******************************************************************************
 105:.\Generated_Source\PSoC4/Opamp_PM.c **** * Function Name: Opamp_Wakeup
 106:.\Generated_Source\PSoC4/Opamp_PM.c **** ********************************************************************************
 107:.\Generated_Source\PSoC4/Opamp_PM.c **** *
 108:.\Generated_Source\PSoC4/Opamp_PM.c **** * Summary:
 109:.\Generated_Source\PSoC4/Opamp_PM.c **** *  This is the preferred API to restore the component to the state when Sleep() 
 110:.\Generated_Source\PSoC4/Opamp_PM.c **** *  is called. If the component has been enabled before the Sleep() function is 
 111:.\Generated_Source\PSoC4/Opamp_PM.c **** *  called, the Wakeup() function will also re-enable the component.
 112:.\Generated_Source\PSoC4/Opamp_PM.c **** *  The "Deep sleep operation" option has an influence on this function
 113:.\Generated_Source\PSoC4/Opamp_PM.c **** *  implementation.
 114:.\Generated_Source\PSoC4/Opamp_PM.c **** *
 115:.\Generated_Source\PSoC4/Opamp_PM.c **** * Parameters:
 116:.\Generated_Source\PSoC4/Opamp_PM.c **** *  None
 117:.\Generated_Source\PSoC4/Opamp_PM.c **** *
 118:.\Generated_Source\PSoC4/Opamp_PM.c **** * Return:
 119:.\Generated_Source\PSoC4/Opamp_PM.c **** *  None
 120:.\Generated_Source\PSoC4/Opamp_PM.c **** *
 121:.\Generated_Source\PSoC4/Opamp_PM.c **** * Global variables:
 122:.\Generated_Source\PSoC4/Opamp_PM.c **** *  Opamp_backup: The structure field 'enableState' is used to
 123:.\Generated_Source\PSoC4/Opamp_PM.c **** *  restore the enable state of block after wakeup from sleep mode.
 124:.\Generated_Source\PSoC4/Opamp_PM.c **** *
 125:.\Generated_Source\PSoC4/Opamp_PM.c **** *******************************************************************************/
 126:.\Generated_Source\PSoC4/Opamp_PM.c **** void Opamp_Wakeup(void)
 127:.\Generated_Source\PSoC4/Opamp_PM.c **** {
  95              		.loc 1 127 0
  96              		.cfi_startproc
  97 0000 80B5     		push	{r7, lr}
  98              		.cfi_def_cfa_offset 8
  99              		.cfi_offset 7, -8
 100              		.cfi_offset 14, -4
 101 0002 00AF     		add	r7, sp, #0
ARM GAS  C:\Users\MANISH~1\AppData\Local\Temp\cc67TuIP.s 			page 5


 102              		.cfi_def_cfa_register 7
 128:.\Generated_Source\PSoC4/Opamp_PM.c **** #if(!Opamp_CHECK_DEEPSLEEP_SUPPORT)
 129:.\Generated_Source\PSoC4/Opamp_PM.c ****     if(0u != Opamp_backup.enableState)
 130:.\Generated_Source\PSoC4/Opamp_PM.c ****     {
 131:.\Generated_Source\PSoC4/Opamp_PM.c ****         /* Enable Opamp's operation */
 132:.\Generated_Source\PSoC4/Opamp_PM.c ****         Opamp_Enable();
 133:.\Generated_Source\PSoC4/Opamp_PM.c ****     } /* Do nothing if Opamp was disabled before */
 134:.\Generated_Source\PSoC4/Opamp_PM.c **** #endif /* (Opamp_CHECK_DEEPSLEEP_SUPPORT) */
 135:.\Generated_Source\PSoC4/Opamp_PM.c **** }
 103              		.loc 1 135 0
 104 0004 BD46     		mov	sp, r7
 105              		@ sp needed
 106 0006 80BD     		pop	{r7, pc}
 107              		.cfi_endproc
 108              	.LFE3:
 109              		.size	Opamp_Wakeup, .-Opamp_Wakeup
 110              		.text
 111              	.Letext0: